
dds5a.elf:     file format elf32-avr

Sections:
Idx Name          Size      VMA       LMA       File off  Algn
  0 .data         0000020c  00800100  0000337a  0000340e  2**0
                  CONTENTS, ALLOC, LOAD, DATA
  1 .text         0000337a  00000000  00000000  00000094  2**1
                  CONTENTS, ALLOC, LOAD, READONLY, CODE
  2 .bss          00000056  0080030c  0080030c  0000361a  2**0
                  ALLOC
  3 .comment      00000011  00000000  00000000  0000361a  2**0
                  CONTENTS, READONLY
  4 .note.gnu.avr.deviceinfo 00000040  00000000  00000000  0000362c  2**2
                  CONTENTS, READONLY
  5 .debug_info   000005f4  00000000  00000000  0000366c  2**0
                  CONTENTS, READONLY, DEBUGGING
  6 .debug_abbrev 000005a2  00000000  00000000  00003c60  2**0
                  CONTENTS, READONLY, DEBUGGING
  7 .debug_line   0000001a  00000000  00000000  00004202  2**0
                  CONTENTS, READONLY, DEBUGGING
  8 .debug_str    00000208  00000000  00000000  0000421c  2**0
                  CONTENTS, READONLY, DEBUGGING

Disassembly of section .text:

00000000 <__vectors>:
       0:	33 c0       	rjmp	.+102    	; 0x68 <__ctors_end>
       2:	00 00       	nop
       4:	4e c0       	rjmp	.+156    	; 0xa2 <__bad_interrupt>
       6:	00 00       	nop
       8:	4c c0       	rjmp	.+152    	; 0xa2 <__bad_interrupt>
       a:	00 00       	nop
       c:	4a c0       	rjmp	.+148    	; 0xa2 <__bad_interrupt>
       e:	00 00       	nop
      10:	48 c0       	rjmp	.+144    	; 0xa2 <__bad_interrupt>
      12:	00 00       	nop
      14:	46 c0       	rjmp	.+140    	; 0xa2 <__bad_interrupt>
      16:	00 00       	nop
      18:	44 c0       	rjmp	.+136    	; 0xa2 <__bad_interrupt>
      1a:	00 00       	nop
      1c:	e2 c4       	rjmp	.+2500   	; 0x9e2 <__vector_7>
      1e:	00 00       	nop
      20:	40 c0       	rjmp	.+128    	; 0xa2 <__bad_interrupt>
      22:	00 00       	nop
      24:	3e c0       	rjmp	.+124    	; 0xa2 <__bad_interrupt>
      26:	00 00       	nop
      28:	3c c0       	rjmp	.+120    	; 0xa2 <__bad_interrupt>
      2a:	00 00       	nop
      2c:	3a c0       	rjmp	.+116    	; 0xa2 <__bad_interrupt>
      2e:	00 00       	nop
      30:	38 c0       	rjmp	.+112    	; 0xa2 <__bad_interrupt>
      32:	00 00       	nop
      34:	36 c0       	rjmp	.+108    	; 0xa2 <__bad_interrupt>
      36:	00 00       	nop
      38:	34 c0       	rjmp	.+104    	; 0xa2 <__bad_interrupt>
      3a:	00 00       	nop
      3c:	32 c0       	rjmp	.+100    	; 0xa2 <__bad_interrupt>
      3e:	00 00       	nop
      40:	30 c0       	rjmp	.+96     	; 0xa2 <__bad_interrupt>
      42:	00 00       	nop
      44:	2e c0       	rjmp	.+92     	; 0xa2 <__bad_interrupt>
      46:	00 00       	nop
      48:	2c c0       	rjmp	.+88     	; 0xa2 <__bad_interrupt>
      4a:	00 00       	nop
      4c:	2a c0       	rjmp	.+84     	; 0xa2 <__bad_interrupt>
      4e:	00 00       	nop
      50:	28 c0       	rjmp	.+80     	; 0xa2 <__bad_interrupt>
      52:	00 00       	nop
      54:	26 c0       	rjmp	.+76     	; 0xa2 <__bad_interrupt>
      56:	00 00       	nop
      58:	24 c0       	rjmp	.+72     	; 0xa2 <__bad_interrupt>
      5a:	00 00       	nop
      5c:	22 c0       	rjmp	.+68     	; 0xa2 <__bad_interrupt>
      5e:	00 00       	nop
      60:	20 c0       	rjmp	.+64     	; 0xa2 <__bad_interrupt>
      62:	00 00       	nop
      64:	1e c0       	rjmp	.+60     	; 0xa2 <__bad_interrupt>
	...

00000068 <__ctors_end>:
      68:	11 24       	eor	r1, r1
      6a:	1f be       	out	0x3f, r1	; 63
      6c:	cf ef       	ldi	r28, 0xFF	; 255
      6e:	d8 e0       	ldi	r29, 0x08	; 8
      70:	de bf       	out	0x3e, r29	; 62
      72:	cd bf       	out	0x3d, r28	; 61

00000074 <__do_copy_data>:
      74:	13 e0       	ldi	r17, 0x03	; 3
      76:	a0 e0       	ldi	r26, 0x00	; 0
      78:	b1 e0       	ldi	r27, 0x01	; 1
      7a:	ea e7       	ldi	r30, 0x7A	; 122
      7c:	f3 e3       	ldi	r31, 0x33	; 51
      7e:	02 c0       	rjmp	.+4      	; 0x84 <__do_copy_data+0x10>
      80:	05 90       	lpm	r0, Z+
      82:	0d 92       	st	X+, r0
      84:	ac 30       	cpi	r26, 0x0C	; 12
      86:	b1 07       	cpc	r27, r17
      88:	d9 f7       	brne	.-10     	; 0x80 <__do_copy_data+0xc>

0000008a <__do_clear_bss>:
      8a:	23 e0       	ldi	r18, 0x03	; 3
      8c:	ac e0       	ldi	r26, 0x0C	; 12
      8e:	b3 e0       	ldi	r27, 0x03	; 3
      90:	01 c0       	rjmp	.+2      	; 0x94 <.do_clear_bss_start>

00000092 <.do_clear_bss_loop>:
      92:	1d 92       	st	X+, r1

00000094 <.do_clear_bss_start>:
      94:	a2 36       	cpi	r26, 0x62	; 98
      96:	b2 07       	cpc	r27, r18
      98:	e1 f7       	brne	.-8      	; 0x92 <.do_clear_bss_loop>
      9a:	0e 94 27 0a 	call	0x144e	; 0x144e <main>
      9e:	0c 94 bb 19 	jmp	0x3376	; 0x3376 <_exit>

000000a2 <__bad_interrupt>:
      a2:	ae cf       	rjmp	.-164    	; 0x0 <__vectors>

000000a4 <FONT>:
	...
     230:	00 08       	sbc	r0, r0
     232:	08 08       	sbc	r0, r8
     234:	08 08       	sbc	r0, r8
     236:	08 00       	.word	0x0008	; ????
     238:	08 00       	.word	0x0008	; ????
     23a:	00 00       	nop
     23c:	00 14       	cp	r0, r0
     23e:	14 14       	cp	r1, r4
	...
     248:	00 00       	nop
     24a:	14 14       	cp	r1, r4
     24c:	3e 14       	cp	r3, r14
     24e:	3e 14       	cp	r3, r14
     250:	14 00       	.word	0x0014	; ????
     252:	00 00       	nop
     254:	00 00       	nop
     256:	08 3c       	cpi	r16, 0xC8	; 200
     258:	0a 1c       	adc	r0, r10
     25a:	28 1e       	adc	r2, r24
     25c:	08 00       	.word	0x0008	; ????
     25e:	00 00       	nop
     260:	00 00       	nop
     262:	06 26       	eor	r0, r22
     264:	10 08       	sbc	r1, r0
     266:	04 32       	cpi	r16, 0x24	; 36
     268:	30 00       	.word	0x0030	; ????
     26a:	00 00       	nop
     26c:	00 00       	nop
     26e:	1c 02       	muls	r17, r28
     270:	02 04       	cpc	r0, r2
     272:	2a 12       	cpse	r2, r26
     274:	2c 00       	.word	0x002c	; ????
     276:	00 00       	nop
     278:	00 18       	sub	r0, r0
     27a:	08 04       	cpc	r0, r8
	...
     284:	20 10       	cpse	r2, r0
     286:	10 08       	sbc	r1, r0
     288:	08 08       	sbc	r0, r8
     28a:	08 08       	sbc	r0, r8
     28c:	10 10       	cpse	r1, r0
     28e:	20 00       	.word	0x0020	; ????
     290:	02 04       	cpc	r0, r2
     292:	04 08       	sbc	r0, r4
     294:	08 08       	sbc	r0, r8
     296:	08 08       	sbc	r0, r8
     298:	04 04       	cpc	r0, r4
     29a:	02 00       	.word	0x0002	; ????
     29c:	00 00       	nop
     29e:	00 08       	sbc	r0, r0
     2a0:	2a 1c       	adc	r2, r10
     2a2:	2a 08       	sbc	r2, r10
     2a4:	00 00       	nop
     2a6:	00 00       	nop
     2a8:	00 00       	nop
     2aa:	00 08       	sbc	r0, r0
     2ac:	08 3e       	cpi	r16, 0xE8	; 232
     2ae:	08 08       	sbc	r0, r8
	...
     2b8:	00 00       	nop
     2ba:	00 18       	sub	r0, r0
     2bc:	18 08       	sbc	r1, r8
     2be:	04 00       	.word	0x0004	; ????
     2c0:	00 00       	nop
     2c2:	00 00       	nop
     2c4:	00 3e       	cpi	r16, 0xE0	; 224
	...
     2d2:	00 18       	sub	r0, r0
     2d4:	18 00       	.word	0x0018	; ????
     2d6:	00 00       	nop
     2d8:	20 20       	and	r2, r0
     2da:	10 10       	cpse	r1, r0
     2dc:	08 08       	sbc	r0, r8
     2de:	04 04       	cpc	r0, r4
     2e0:	02 02       	muls	r16, r18
     2e2:	00 00       	nop
     2e4:	00 1c       	adc	r0, r0
     2e6:	22 32       	cpi	r18, 0x22	; 34
     2e8:	2a 26       	eor	r2, r26
     2ea:	22 22       	and	r2, r18
     2ec:	1c 00       	.word	0x001c	; ????
     2ee:	00 00       	nop
     2f0:	00 08       	sbc	r0, r0
     2f2:	0c 08       	sbc	r0, r12
     2f4:	08 08       	sbc	r0, r8
     2f6:	08 08       	sbc	r0, r8
     2f8:	08 00       	.word	0x0008	; ????
     2fa:	00 00       	nop
     2fc:	00 1c       	adc	r0, r0
     2fe:	22 20       	and	r2, r2
     300:	10 08       	sbc	r1, r0
     302:	04 02       	muls	r16, r20
     304:	3e 00       	.word	0x003e	; ????
     306:	00 00       	nop
     308:	00 1c       	adc	r0, r0
     30a:	22 20       	and	r2, r2
     30c:	18 20       	and	r1, r8
     30e:	20 22       	and	r2, r16
     310:	1c 00       	.word	0x001c	; ????
     312:	00 00       	nop
     314:	00 10       	cpse	r0, r0
     316:	18 18       	sub	r1, r8
     318:	14 14       	cp	r1, r4
     31a:	3e 10       	cpse	r3, r14
     31c:	38 00       	.word	0x0038	; ????
     31e:	00 00       	nop
     320:	00 3e       	cpi	r16, 0xE0	; 224
     322:	02 02       	muls	r16, r18
     324:	1e 20       	and	r1, r14
     326:	20 22       	and	r2, r16
     328:	1c 00       	.word	0x001c	; ????
     32a:	00 00       	nop
     32c:	00 18       	sub	r0, r0
     32e:	04 02       	muls	r16, r20
     330:	1e 22       	and	r1, r30
     332:	22 22       	and	r2, r18
     334:	1c 00       	.word	0x001c	; ????
     336:	00 00       	nop
     338:	00 3e       	cpi	r16, 0xE0	; 224
     33a:	22 20       	and	r2, r2
     33c:	20 10       	cpse	r2, r0
     33e:	10 08       	sbc	r1, r0
     340:	08 00       	.word	0x0008	; ????
     342:	00 00       	nop
     344:	00 1c       	adc	r0, r0
     346:	22 22       	and	r2, r18
     348:	1c 22       	and	r1, r28
     34a:	22 22       	and	r2, r18
     34c:	1c 00       	.word	0x001c	; ????
     34e:	00 00       	nop
     350:	00 1c       	adc	r0, r0
     352:	22 22       	and	r2, r18
     354:	22 3c       	cpi	r18, 0xC2	; 194
     356:	20 10       	cpse	r2, r0
     358:	0c 00       	.word	0x000c	; ????
     35a:	00 00       	nop
     35c:	00 00       	nop
     35e:	00 18       	sub	r0, r0
     360:	18 00       	.word	0x0018	; ????
     362:	00 18       	sub	r0, r0
     364:	18 00       	.word	0x0018	; ????
     366:	00 00       	nop
     368:	00 00       	nop
     36a:	00 18       	sub	r0, r0
     36c:	18 00       	.word	0x0018	; ????
     36e:	00 18       	sub	r0, r0
     370:	18 08       	sbc	r1, r8
     372:	04 00       	.word	0x0004	; ????
     374:	00 00       	nop
     376:	00 30       	cpi	r16, 0x00	; 0
     378:	0c 03       	fmul	r16, r20
     37a:	0c 30       	cpi	r16, 0x0C	; 12
	...
     384:	3e 00       	.word	0x003e	; ????
     386:	3e 00       	.word	0x003e	; ????
     388:	00 00       	nop
     38a:	00 00       	nop
     38c:	00 00       	nop
     38e:	00 03       	mulsu	r16, r16
     390:	0c 30       	cpi	r16, 0x0C	; 12
     392:	0c 03       	fmul	r16, r20
     394:	00 00       	nop
     396:	00 00       	nop
     398:	00 1c       	adc	r0, r0
     39a:	22 20       	and	r2, r2
     39c:	10 08       	sbc	r1, r0
     39e:	08 00       	.word	0x0008	; ????
     3a0:	08 00       	.word	0x0008	; ????
     3a2:	00 00       	nop
     3a4:	00 00       	nop
     3a6:	1c 22       	and	r1, r28
     3a8:	3a 3a       	cpi	r19, 0xAA	; 170
     3aa:	1a 02       	muls	r17, r26
     3ac:	1c 00       	.word	0x001c	; ????
     3ae:	00 00       	nop
     3b0:	00 00       	nop
     3b2:	08 14       	cp	r0, r8
     3b4:	22 22       	and	r2, r18
     3b6:	3e 22       	and	r3, r30
     3b8:	22 00       	.word	0x0022	; ????
     3ba:	00 00       	nop
     3bc:	00 00       	nop
     3be:	1e 22       	and	r1, r30
     3c0:	22 1e       	adc	r2, r18
     3c2:	22 22       	and	r2, r18
     3c4:	1e 00       	.word	0x001e	; ????
     3c6:	00 00       	nop
     3c8:	00 00       	nop
     3ca:	1c 22       	and	r1, r28
     3cc:	02 02       	muls	r16, r18
     3ce:	02 22       	and	r0, r18
     3d0:	1c 00       	.word	0x001c	; ????
     3d2:	00 00       	nop
     3d4:	00 00       	nop
     3d6:	0e 12       	cpse	r0, r30
     3d8:	22 22       	and	r2, r18
     3da:	22 12       	cpse	r2, r18
     3dc:	0e 00       	.word	0x000e	; ????
     3de:	00 00       	nop
     3e0:	00 00       	nop
     3e2:	3e 02       	muls	r19, r30
     3e4:	02 1e       	adc	r0, r18
     3e6:	02 02       	muls	r16, r18
     3e8:	3e 00       	.word	0x003e	; ????
     3ea:	00 00       	nop
     3ec:	00 00       	nop
     3ee:	3e 02       	muls	r19, r30
     3f0:	02 1e       	adc	r0, r18
     3f2:	02 02       	muls	r16, r18
     3f4:	02 00       	.word	0x0002	; ????
     3f6:	00 00       	nop
     3f8:	00 00       	nop
     3fa:	1c 22       	and	r1, r28
     3fc:	02 32       	cpi	r16, 0x22	; 34
     3fe:	22 22       	and	r2, r18
     400:	3c 00       	.word	0x003c	; ????
     402:	00 00       	nop
     404:	00 00       	nop
     406:	22 22       	and	r2, r18
     408:	22 3e       	cpi	r18, 0xE2	; 226
     40a:	22 22       	and	r2, r18
     40c:	22 00       	.word	0x0022	; ????
     40e:	00 00       	nop
     410:	00 00       	nop
     412:	3e 08       	sbc	r3, r14
     414:	08 08       	sbc	r0, r8
     416:	08 08       	sbc	r0, r8
     418:	3e 00       	.word	0x003e	; ????
     41a:	00 00       	nop
     41c:	00 00       	nop
     41e:	38 20       	and	r3, r8
     420:	20 20       	and	r2, r0
     422:	22 22       	and	r2, r18
     424:	1c 00       	.word	0x001c	; ????
     426:	00 00       	nop
     428:	00 00       	nop
     42a:	22 12       	cpse	r2, r18
     42c:	0a 06       	cpc	r0, r26
     42e:	0a 12       	cpse	r0, r26
     430:	22 00       	.word	0x0022	; ????
     432:	00 00       	nop
     434:	00 00       	nop
     436:	02 02       	muls	r16, r18
     438:	02 02       	muls	r16, r18
     43a:	02 02       	muls	r16, r18
     43c:	3e 00       	.word	0x003e	; ????
     43e:	00 00       	nop
     440:	00 00       	nop
     442:	22 36       	cpi	r18, 0x62	; 98
     444:	2a 2a       	or	r2, r26
     446:	22 22       	and	r2, r18
     448:	22 00       	.word	0x0022	; ????
     44a:	00 00       	nop
     44c:	00 00       	nop
     44e:	22 26       	eor	r2, r18
     450:	26 2a       	or	r2, r22
     452:	32 32       	cpi	r19, 0x22	; 34
     454:	22 00       	.word	0x0022	; ????
     456:	00 00       	nop
     458:	00 00       	nop
     45a:	1c 22       	and	r1, r28
     45c:	22 22       	and	r2, r18
     45e:	22 22       	and	r2, r18
     460:	1c 00       	.word	0x001c	; ????
     462:	00 00       	nop
     464:	00 00       	nop
     466:	1e 22       	and	r1, r30
     468:	22 1e       	adc	r2, r18
     46a:	02 02       	muls	r16, r18
     46c:	02 00       	.word	0x0002	; ????
     46e:	00 00       	nop
     470:	00 00       	nop
     472:	1c 22       	and	r1, r28
     474:	22 22       	and	r2, r18
     476:	22 22       	and	r2, r18
     478:	1c 30       	cpi	r17, 0x0C	; 12
     47a:	00 00       	nop
     47c:	00 00       	nop
     47e:	1e 22       	and	r1, r30
     480:	22 1e       	adc	r2, r18
     482:	0a 12       	cpse	r0, r26
     484:	22 00       	.word	0x0022	; ????
     486:	00 00       	nop
     488:	00 00       	nop
     48a:	1c 22       	and	r1, r28
     48c:	02 1c       	adc	r0, r2
     48e:	20 22       	and	r2, r16
     490:	1c 00       	.word	0x001c	; ????
     492:	00 00       	nop
     494:	00 00       	nop
     496:	3e 08       	sbc	r3, r14
     498:	08 08       	sbc	r0, r8
     49a:	08 08       	sbc	r0, r8
     49c:	08 00       	.word	0x0008	; ????
     49e:	00 00       	nop
     4a0:	00 00       	nop
     4a2:	22 22       	and	r2, r18
     4a4:	22 22       	and	r2, r18
     4a6:	22 22       	and	r2, r18
     4a8:	1c 00       	.word	0x001c	; ????
     4aa:	00 00       	nop
     4ac:	00 00       	nop
     4ae:	22 22       	and	r2, r18
     4b0:	22 14       	cp	r2, r2
     4b2:	14 08       	sbc	r1, r4
     4b4:	08 00       	.word	0x0008	; ????
     4b6:	00 00       	nop
     4b8:	00 00       	nop
     4ba:	22 22       	and	r2, r18
     4bc:	22 2a       	or	r2, r18
     4be:	2a 36       	cpi	r18, 0x6A	; 106
     4c0:	22 00       	.word	0x0022	; ????
     4c2:	00 00       	nop
     4c4:	00 00       	nop
     4c6:	22 22       	and	r2, r18
     4c8:	14 08       	sbc	r1, r4
     4ca:	14 22       	and	r1, r20
     4cc:	22 00       	.word	0x0022	; ????
     4ce:	00 00       	nop
     4d0:	00 00       	nop
     4d2:	22 22       	and	r2, r18
     4d4:	14 08       	sbc	r1, r4
     4d6:	08 08       	sbc	r0, r8
     4d8:	08 00       	.word	0x0008	; ????
     4da:	00 00       	nop
     4dc:	00 00       	nop
     4de:	3e 20       	and	r3, r14
     4e0:	10 08       	sbc	r1, r0
     4e2:	04 02       	muls	r16, r20
     4e4:	3e 00       	.word	0x003e	; ????
     4e6:	00 00       	nop
     4e8:	38 08       	sbc	r3, r8
     4ea:	08 08       	sbc	r0, r8
     4ec:	08 08       	sbc	r0, r8
     4ee:	08 08       	sbc	r0, r8
     4f0:	08 08       	sbc	r0, r8
     4f2:	38 00       	.word	0x0038	; ????
     4f4:	02 02       	muls	r16, r18
     4f6:	04 04       	cpc	r0, r4
     4f8:	08 08       	sbc	r0, r8
     4fa:	10 10       	cpse	r1, r0
     4fc:	20 20       	and	r2, r0
     4fe:	00 00       	nop
     500:	0e 08       	sbc	r0, r14
     502:	08 08       	sbc	r0, r8
     504:	08 08       	sbc	r0, r8
     506:	08 08       	sbc	r0, r8
     508:	08 08       	sbc	r0, r8
     50a:	0e 00       	.word	0x000e	; ????
     50c:	00 08       	sbc	r0, r0
     50e:	14 22       	and	r1, r20
	...
     520:	00 3f       	cpi	r16, 0xF0	; 240
     522:	00 00       	nop
     524:	00 0c       	add	r0, r0
     526:	08 10       	cpse	r0, r8
	...
     534:	3c 22       	and	r3, r28
     536:	22 32       	cpi	r18, 0x22	; 34
     538:	2c 00       	.word	0x002c	; ????
     53a:	00 00       	nop
     53c:	00 02       	muls	r16, r16
     53e:	02 02       	muls	r16, r18
     540:	1e 22       	and	r1, r30
     542:	22 22       	and	r2, r18
     544:	1e 00       	.word	0x001e	; ????
     546:	00 00       	nop
     548:	00 00       	nop
     54a:	00 00       	nop
     54c:	3c 02       	muls	r19, r28
     54e:	02 02       	muls	r16, r18
     550:	3c 00       	.word	0x003c	; ????
     552:	00 00       	nop
     554:	00 20       	and	r0, r0
     556:	20 20       	and	r2, r0
     558:	3c 22       	and	r3, r28
     55a:	22 22       	and	r2, r18
     55c:	3c 00       	.word	0x003c	; ????
     55e:	00 00       	nop
     560:	00 00       	nop
     562:	00 00       	nop
     564:	1c 22       	and	r1, r28
     566:	3e 02       	muls	r19, r30
     568:	1c 00       	.word	0x001c	; ????
     56a:	00 00       	nop
     56c:	00 38       	cpi	r16, 0x80	; 128
     56e:	04 04       	cpc	r0, r4
     570:	1e 04       	cpc	r1, r14
     572:	04 04       	cpc	r0, r4
     574:	04 00       	.word	0x0004	; ????
     576:	00 00       	nop
     578:	00 00       	nop
     57a:	00 00       	nop
     57c:	3c 22       	and	r3, r28
     57e:	22 22       	and	r2, r18
     580:	3c 20       	and	r3, r12
     582:	20 1c       	adc	r2, r0
     584:	00 02       	muls	r16, r16
     586:	02 02       	muls	r16, r18
     588:	1e 22       	and	r1, r30
     58a:	22 22       	and	r2, r18
     58c:	22 00       	.word	0x0022	; ????
     58e:	00 00       	nop
     590:	00 08       	sbc	r0, r0
     592:	08 00       	.word	0x0008	; ????
     594:	0c 08       	sbc	r0, r12
     596:	08 08       	sbc	r0, r8
     598:	1c 00       	.word	0x001c	; ????
     59a:	00 00       	nop
     59c:	00 10       	cpse	r0, r0
     59e:	10 00       	.word	0x0010	; ????
     5a0:	1c 10       	cpse	r1, r12
     5a2:	10 10       	cpse	r1, r0
     5a4:	10 10       	cpse	r1, r0
     5a6:	10 0e       	add	r1, r16
     5a8:	00 02       	muls	r16, r16
     5aa:	02 02       	muls	r16, r18
     5ac:	12 0a       	sbc	r1, r18
     5ae:	06 0a       	sbc	r0, r22
     5b0:	12 00       	.word	0x0012	; ????
     5b2:	00 00       	nop
     5b4:	00 0c       	add	r0, r0
     5b6:	08 08       	sbc	r0, r8
     5b8:	08 08       	sbc	r0, r8
     5ba:	08 08       	sbc	r0, r8
     5bc:	1c 00       	.word	0x001c	; ????
     5be:	00 00       	nop
     5c0:	00 00       	nop
     5c2:	00 00       	nop
     5c4:	16 2a       	or	r1, r22
     5c6:	2a 2a       	or	r2, r26
     5c8:	22 00       	.word	0x0022	; ????
     5ca:	00 00       	nop
     5cc:	00 00       	nop
     5ce:	00 00       	nop
     5d0:	1a 26       	eor	r1, r26
     5d2:	22 22       	and	r2, r18
     5d4:	22 00       	.word	0x0022	; ????
     5d6:	00 00       	nop
     5d8:	00 00       	nop
     5da:	00 00       	nop
     5dc:	1c 22       	and	r1, r28
     5de:	22 22       	and	r2, r18
     5e0:	1c 00       	.word	0x001c	; ????
     5e2:	00 00       	nop
     5e4:	00 00       	nop
     5e6:	00 00       	nop
     5e8:	1e 22       	and	r1, r30
     5ea:	22 22       	and	r2, r18
     5ec:	1e 02       	muls	r17, r30
     5ee:	02 02       	muls	r16, r18
     5f0:	00 00       	nop
     5f2:	00 00       	nop
     5f4:	3c 22       	and	r3, r28
     5f6:	22 22       	and	r2, r18
     5f8:	3c 20       	and	r3, r12
     5fa:	20 20       	and	r2, r0
     5fc:	00 00       	nop
     5fe:	00 00       	nop
     600:	1a 06       	cpc	r1, r26
     602:	02 02       	muls	r16, r18
     604:	02 00       	.word	0x0002	; ????
     606:	00 00       	nop
     608:	00 00       	nop
     60a:	00 00       	nop
     60c:	3c 02       	muls	r19, r28
     60e:	1c 20       	and	r1, r12
     610:	1e 00       	.word	0x001e	; ????
     612:	00 00       	nop
     614:	00 08       	sbc	r0, r0
     616:	08 08       	sbc	r0, r8
     618:	3e 08       	sbc	r3, r14
     61a:	08 08       	sbc	r0, r8
     61c:	30 00       	.word	0x0030	; ????
     61e:	00 00       	nop
     620:	00 00       	nop
     622:	00 00       	nop
     624:	22 22       	and	r2, r18
     626:	22 32       	cpi	r18, 0x22	; 34
     628:	2c 00       	.word	0x002c	; ????
     62a:	00 00       	nop
     62c:	00 00       	nop
     62e:	00 00       	nop
     630:	36 14       	cp	r3, r6
     632:	14 08       	sbc	r1, r4
     634:	08 00       	.word	0x0008	; ????
     636:	00 00       	nop
     638:	00 00       	nop
     63a:	00 00       	nop
     63c:	22 2a       	or	r2, r18
     63e:	2a 2a       	or	r2, r26
     640:	14 00       	.word	0x0014	; ????
     642:	00 00       	nop
     644:	00 00       	nop
     646:	00 00       	nop
     648:	22 14       	cp	r2, r2
     64a:	08 14       	cp	r0, r8
     64c:	22 00       	.word	0x0022	; ????
     64e:	00 00       	nop
     650:	00 00       	nop
     652:	00 00       	nop
     654:	22 22       	and	r2, r18
     656:	22 22       	and	r2, r18
     658:	3c 20       	and	r3, r12
     65a:	20 1c       	adc	r2, r0
     65c:	00 00       	nop
     65e:	00 00       	nop
     660:	3e 10       	cpse	r3, r14
     662:	08 04       	cpc	r0, r8
     664:	3e 00       	.word	0x003e	; ????
     666:	00 00       	nop
     668:	20 10       	cpse	r2, r0
     66a:	10 10       	cpse	r1, r0
     66c:	10 08       	sbc	r1, r0
     66e:	10 10       	cpse	r1, r0
     670:	10 10       	cpse	r1, r0
     672:	20 00       	.word	0x0020	; ????
     674:	08 08       	sbc	r0, r8
     676:	08 08       	sbc	r0, r8
     678:	08 08       	sbc	r0, r8
     67a:	08 08       	sbc	r0, r8
     67c:	08 08       	sbc	r0, r8
     67e:	08 00       	.word	0x0008	; ????
     680:	02 04       	cpc	r0, r2
     682:	04 04       	cpc	r0, r4
     684:	04 08       	sbc	r0, r4
     686:	04 04       	cpc	r0, r4
     688:	04 04       	cpc	r0, r4
     68a:	02 00       	.word	0x0002	; ????
     68c:	00 04       	cpc	r0, r0
     68e:	2a 10       	cpse	r2, r10
	...
     698:	00 00       	nop
     69a:	00 08       	sbc	r0, r0
     69c:	08 14       	cp	r0, r8
     69e:	14 22       	and	r1, r20
     6a0:	3e 00       	.word	0x003e	; ????
	...

000006a4 <_getPixels>:
     6a4:	cf 93       	push	r28
     6a6:	df 93       	push	r29
     6a8:	9c e0       	ldi	r25, 0x0C	; 12
     6aa:	89 9f       	mul	r24, r25

000006ac <_gp1>:
     6ac:	e2 e5       	ldi	r30, 0x52	; 82
     6ae:	f0 e0       	ldi	r31, 0x00	; 0
     6b0:	ee 0f       	add	r30, r30
     6b2:	ff 1f       	adc	r31, r31
     6b4:	e0 0d       	add	r30, r0
     6b6:	f1 1d       	adc	r31, r1
     6b8:	8c e0       	ldi	r24, 0x0C	; 12
     6ba:	eb 01       	movw	r28, r22

000006bc <gpix1>:
     6bc:	95 91       	lpm	r25, Z+
     6be:	99 93       	st	Y+, r25
     6c0:	8a 95       	dec	r24
     6c2:	e1 f7       	brne	.-8      	; 0x6bc <gpix1>
     6c4:	11 24       	eor	r1, r1
     6c6:	df 91       	pop	r29
     6c8:	cf 91       	pop	r28
     6ca:	08 95       	ret

000006cc <_ZN7EncoderC1Ehhh>:
     6cc:	af 92       	push	r10
     6ce:	bf 92       	push	r11
     6d0:	cf 92       	push	r12
     6d2:	df 92       	push	r13
     6d4:	ef 92       	push	r14
     6d6:	ff 92       	push	r15
     6d8:	0f 93       	push	r16
     6da:	1f 93       	push	r17
     6dc:	cf 93       	push	r28
     6de:	df 93       	push	r29
     6e0:	1f 92       	push	r1
     6e2:	cd b7       	in	r28, 0x3d	; 61
     6e4:	de b7       	in	r29, 0x3e	; 62
     6e6:	5c 01       	movw	r10, r24
     6e8:	c4 2e       	mov	r12, r20
     6ea:	d2 2e       	mov	r13, r18
     6ec:	88 e3       	ldi	r24, 0x38	; 56
     6ee:	92 e0       	ldi	r25, 0x02	; 2
     6f0:	f5 01       	movw	r30, r10
     6f2:	91 83       	std	Z+1, r25	; 0x01
     6f4:	80 83       	st	Z, r24
     6f6:	04 e0       	ldi	r16, 0x04	; 4
     6f8:	10 e0       	ldi	r17, 0x00	; 0
     6fa:	16 87       	std	Z+14, r17	; 0x0e
     6fc:	05 87       	std	Z+13, r16	; 0x0d
     6fe:	8b e0       	ldi	r24, 0x0B	; 11
     700:	90 e0       	ldi	r25, 0x00	; 0
     702:	69 83       	std	Y+1, r22	; 0x01
     704:	0e 94 68 15 	call	0x2ad0	; 0x2ad0 <malloc>
     708:	7c 01       	movw	r14, r24
     70a:	4d 2d       	mov	r20, r13
     70c:	69 81       	ldd	r22, Y+1	; 0x01
     70e:	0e 94 dd 10 	call	0x21ba	; 0x21ba <_ZN2SwC1Ehh>
     712:	f5 01       	movw	r30, r10
     714:	f3 82       	std	Z+3, r15	; 0x03
     716:	e2 82       	std	Z+2, r14	; 0x02
     718:	8b e0       	ldi	r24, 0x0B	; 11
     71a:	90 e0       	ldi	r25, 0x00	; 0
     71c:	0e 94 68 15 	call	0x2ad0	; 0x2ad0 <malloc>
     720:	7c 01       	movw	r14, r24
     722:	4d 2d       	mov	r20, r13
     724:	6c 2d       	mov	r22, r12
     726:	0e 94 dd 10 	call	0x21ba	; 0x21ba <_ZN2SwC1Ehh>
     72a:	f5 01       	movw	r30, r10
     72c:	f5 82       	std	Z+5, r15	; 0x05
     72e:	e4 82       	std	Z+4, r14	; 0x04
     730:	82 81       	ldd	r24, Z+2	; 0x02
     732:	93 81       	ldd	r25, Z+3	; 0x03
     734:	0e 94 48 11 	call	0x2290	; 0x2290 <_ZN2Sw8isClosedEv>
     738:	f5 01       	movw	r30, r10
     73a:	24 81       	ldd	r18, Z+4	; 0x04
     73c:	35 81       	ldd	r19, Z+5	; 0x05
     73e:	88 23       	and	r24, r24
     740:	71 f0       	breq	.+28     	; 0x75e <_ZN7EncoderC1Ehhh+0x92>
     742:	c9 01       	movw	r24, r18
     744:	0e 94 48 11 	call	0x2290	; 0x2290 <_ZN2Sw8isClosedEv>
     748:	88 23       	and	r24, r24
     74a:	19 f0       	breq	.+6      	; 0x752 <_ZN7EncoderC1Ehhh+0x86>
     74c:	82 e0       	ldi	r24, 0x02	; 2
     74e:	90 e0       	ldi	r25, 0x00	; 0
     750:	02 c0       	rjmp	.+4      	; 0x756 <_ZN7EncoderC1Ehhh+0x8a>
     752:	81 e0       	ldi	r24, 0x01	; 1
     754:	90 e0       	ldi	r25, 0x00	; 0
     756:	f5 01       	movw	r30, r10
     758:	97 83       	std	Z+7, r25	; 0x07
     75a:	86 83       	std	Z+6, r24	; 0x06
     75c:	0b c0       	rjmp	.+22     	; 0x774 <_ZN7EncoderC1Ehhh+0xa8>
     75e:	c9 01       	movw	r24, r18
     760:	0e 94 48 11 	call	0x2290	; 0x2290 <_ZN2Sw8isClosedEv>
     764:	f5 01       	movw	r30, r10
     766:	88 23       	and	r24, r24
     768:	19 f0       	breq	.+6      	; 0x770 <_ZN7EncoderC1Ehhh+0xa4>
     76a:	17 83       	std	Z+7, r17	; 0x07
     76c:	06 83       	std	Z+6, r16	; 0x06
     76e:	02 c0       	rjmp	.+4      	; 0x774 <_ZN7EncoderC1Ehhh+0xa8>
     770:	17 82       	std	Z+7, r1	; 0x07
     772:	16 82       	std	Z+6, r1	; 0x06
     774:	f5 01       	movw	r30, r10
     776:	10 86       	std	Z+8, r1	; 0x08
     778:	61 e0       	ldi	r22, 0x01	; 1
     77a:	70 e0       	ldi	r23, 0x00	; 0
     77c:	c5 01       	movw	r24, r10
     77e:	69 d1       	rcall	.+722    	; 0xa52 <_ZN5Clock16registerPeriodicEP8Callbackj>
     780:	f5 01       	movw	r30, r10
     782:	12 86       	std	Z+10, r1	; 0x0a
     784:	11 86       	std	Z+9, r1	; 0x09
     786:	14 86       	std	Z+12, r1	; 0x0c
     788:	13 86       	std	Z+11, r1	; 0x0b
     78a:	0f 90       	pop	r0
     78c:	df 91       	pop	r29
     78e:	cf 91       	pop	r28
     790:	1f 91       	pop	r17
     792:	0f 91       	pop	r16
     794:	ff 90       	pop	r15
     796:	ef 90       	pop	r14
     798:	df 90       	pop	r13
     79a:	cf 90       	pop	r12
     79c:	bf 90       	pop	r11
     79e:	af 90       	pop	r10
     7a0:	08 95       	ret

000007a2 <_ZN7Encoder6updateEv>:
     7a2:	1f 93       	push	r17
     7a4:	cf 93       	push	r28
     7a6:	df 93       	push	r29
     7a8:	ec 01       	movw	r28, r24
     7aa:	8a 81       	ldd	r24, Y+2	; 0x02
     7ac:	9b 81       	ldd	r25, Y+3	; 0x03
     7ae:	0e 94 3a 11 	call	0x2274	; 0x2274 <_ZN2Sw8hasEventEv>
     7b2:	81 11       	cpse	r24, r1
     7b4:	07 c0       	rjmp	.+14     	; 0x7c4 <_ZN7Encoder6updateEv+0x22>
     7b6:	8c 81       	ldd	r24, Y+4	; 0x04
     7b8:	9d 81       	ldd	r25, Y+5	; 0x05
     7ba:	0e 94 3a 11 	call	0x2274	; 0x2274 <_ZN2Sw8hasEventEv>
     7be:	88 23       	and	r24, r24
     7c0:	09 f4       	brne	.+2      	; 0x7c4 <_ZN7Encoder6updateEv+0x22>
     7c2:	61 c0       	rjmp	.+194    	; 0x886 <_ZN7Encoder6updateEv+0xe4>
     7c4:	8a 81       	ldd	r24, Y+2	; 0x02
     7c6:	9b 81       	ldd	r25, Y+3	; 0x03
     7c8:	0e 94 42 11 	call	0x2284	; 0x2284 <_ZN2Sw8getEventEv>
     7cc:	2c 81       	ldd	r18, Y+4	; 0x04
     7ce:	3d 81       	ldd	r19, Y+5	; 0x05
     7d0:	82 30       	cpi	r24, 0x02	; 2
     7d2:	39 f4       	brne	.+14     	; 0x7e2 <_ZN7Encoder6updateEv+0x40>
     7d4:	c9 01       	movw	r24, r18
     7d6:	0e 94 48 11 	call	0x2290	; 0x2290 <_ZN2Sw8isClosedEv>
     7da:	88 23       	and	r24, r24
     7dc:	09 f4       	brne	.+2      	; 0x7e0 <_ZN7Encoder6updateEv+0x3e>
     7de:	4e c0       	rjmp	.+156    	; 0x87c <_ZN7Encoder6updateEv+0xda>
     7e0:	1b c0       	rjmp	.+54     	; 0x818 <_ZN7Encoder6updateEv+0x76>
     7e2:	c9 01       	movw	r24, r18
     7e4:	0e 94 42 11 	call	0x2284	; 0x2284 <_ZN2Sw8getEventEv>
     7e8:	2a 81       	ldd	r18, Y+2	; 0x02
     7ea:	3b 81       	ldd	r19, Y+3	; 0x03
     7ec:	82 30       	cpi	r24, 0x02	; 2
     7ee:	21 f4       	brne	.+8      	; 0x7f8 <_ZN7Encoder6updateEv+0x56>
     7f0:	8d 85       	ldd	r24, Y+13	; 0x0d
     7f2:	9e 85       	ldd	r25, Y+14	; 0x0e
     7f4:	04 97       	sbiw	r24, 0x04	; 4
     7f6:	59 f0       	breq	.+22     	; 0x80e <_ZN7Encoder6updateEv+0x6c>
     7f8:	c9 01       	movw	r24, r18
     7fa:	0e 94 42 11 	call	0x2284	; 0x2284 <_ZN2Sw8getEventEv>
     7fe:	2c 81       	ldd	r18, Y+4	; 0x04
     800:	3d 81       	ldd	r19, Y+5	; 0x05
     802:	81 30       	cpi	r24, 0x01	; 1
     804:	59 f4       	brne	.+22     	; 0x81c <_ZN7Encoder6updateEv+0x7a>
     806:	8d 85       	ldd	r24, Y+13	; 0x0d
     808:	9e 85       	ldd	r25, Y+14	; 0x0e
     80a:	01 97       	sbiw	r24, 0x01	; 1
     80c:	39 f0       	breq	.+14     	; 0x81c <_ZN7Encoder6updateEv+0x7a>
     80e:	c9 01       	movw	r24, r18
     810:	0e 94 48 11 	call	0x2290	; 0x2290 <_ZN2Sw8isClosedEv>
     814:	81 11       	cpse	r24, r1
     816:	32 c0       	rjmp	.+100    	; 0x87c <_ZN7Encoder6updateEv+0xda>
     818:	12 e0       	ldi	r17, 0x02	; 2
     81a:	0a c0       	rjmp	.+20     	; 0x830 <_ZN7Encoder6updateEv+0x8e>
     81c:	c9 01       	movw	r24, r18
     81e:	0e 94 42 11 	call	0x2284	; 0x2284 <_ZN2Sw8getEventEv>
     822:	81 30       	cpi	r24, 0x01	; 1
     824:	21 f4       	brne	.+8      	; 0x82e <_ZN7Encoder6updateEv+0x8c>
     826:	8d 85       	ldd	r24, Y+13	; 0x0d
     828:	9e 85       	ldd	r25, Y+14	; 0x0e
     82a:	04 97       	sbiw	r24, 0x04	; 4
     82c:	49 f1       	breq	.+82     	; 0x880 <_ZN7Encoder6updateEv+0xde>
     82e:	10 e0       	ldi	r17, 0x00	; 0
     830:	8a 81       	ldd	r24, Y+2	; 0x02
     832:	9b 81       	ldd	r25, Y+3	; 0x03
     834:	0e 94 45 11 	call	0x228a	; 0x228a <_ZN2Sw10clearEventEv>
     838:	8c 81       	ldd	r24, Y+4	; 0x04
     83a:	9d 81       	ldd	r25, Y+5	; 0x05
     83c:	0e 94 45 11 	call	0x228a	; 0x228a <_ZN2Sw10clearEventEv>
     840:	11 23       	and	r17, r17
     842:	09 f1       	breq	.+66     	; 0x886 <_ZN7Encoder6updateEv+0xe4>
     844:	88 85       	ldd	r24, Y+8	; 0x08
     846:	11 30       	cpi	r17, 0x01	; 1
     848:	61 f4       	brne	.+24     	; 0x862 <_ZN7Encoder6updateEv+0xc0>
     84a:	81 30       	cpi	r24, 0x01	; 1
     84c:	31 f4       	brne	.+12     	; 0x85a <_ZN7Encoder6updateEv+0xb8>
     84e:	89 85       	ldd	r24, Y+9	; 0x09
     850:	9a 85       	ldd	r25, Y+10	; 0x0a
     852:	01 96       	adiw	r24, 0x01	; 1
     854:	9a 87       	std	Y+10, r25	; 0x0a
     856:	89 87       	std	Y+9, r24	; 0x09
     858:	16 c0       	rjmp	.+44     	; 0x886 <_ZN7Encoder6updateEv+0xe4>
     85a:	1a 86       	std	Y+10, r1	; 0x0a
     85c:	19 86       	std	Y+9, r1	; 0x09
     85e:	18 87       	std	Y+8, r17	; 0x08
     860:	12 c0       	rjmp	.+36     	; 0x886 <_ZN7Encoder6updateEv+0xe4>
     862:	82 30       	cpi	r24, 0x02	; 2
     864:	31 f4       	brne	.+12     	; 0x872 <_ZN7Encoder6updateEv+0xd0>
     866:	8b 85       	ldd	r24, Y+11	; 0x0b
     868:	9c 85       	ldd	r25, Y+12	; 0x0c
     86a:	01 96       	adiw	r24, 0x01	; 1
     86c:	9c 87       	std	Y+12, r25	; 0x0c
     86e:	8b 87       	std	Y+11, r24	; 0x0b
     870:	0a c0       	rjmp	.+20     	; 0x886 <_ZN7Encoder6updateEv+0xe4>
     872:	1c 86       	std	Y+12, r1	; 0x0c
     874:	1b 86       	std	Y+11, r1	; 0x0b
     876:	82 e0       	ldi	r24, 0x02	; 2
     878:	88 87       	std	Y+8, r24	; 0x08
     87a:	05 c0       	rjmp	.+10     	; 0x886 <_ZN7Encoder6updateEv+0xe4>
     87c:	11 e0       	ldi	r17, 0x01	; 1
     87e:	d8 cf       	rjmp	.-80     	; 0x830 <_ZN7Encoder6updateEv+0x8e>
     880:	8a 81       	ldd	r24, Y+2	; 0x02
     882:	9b 81       	ldd	r25, Y+3	; 0x03
     884:	a8 cf       	rjmp	.-176    	; 0x7d6 <_ZN7Encoder6updateEv+0x34>
     886:	df 91       	pop	r29
     888:	cf 91       	pop	r28
     88a:	1f 91       	pop	r17
     88c:	08 95       	ret

0000088e <_ZN7Encoder8callbackEv>:
     88e:	89 cf       	rjmp	.-238    	; 0x7a2 <_ZN7Encoder6updateEv>

00000890 <_ZN7Encoder8hasEventEv>:
     890:	21 e0       	ldi	r18, 0x01	; 1
     892:	fc 01       	movw	r30, r24
     894:	80 85       	ldd	r24, Z+8	; 0x08
     896:	81 11       	cpse	r24, r1
     898:	01 c0       	rjmp	.+2      	; 0x89c <_ZN7Encoder8hasEventEv+0xc>
     89a:	20 e0       	ldi	r18, 0x00	; 0
     89c:	82 2f       	mov	r24, r18
     89e:	08 95       	ret

000008a0 <_ZN7Encoder8getEventEv>:
     8a0:	fc 01       	movw	r30, r24
     8a2:	80 85       	ldd	r24, Z+8	; 0x08
     8a4:	08 95       	ret

000008a6 <_ZN7Encoder10clearEventEv>:
     8a6:	fc 01       	movw	r30, r24
     8a8:	10 86       	std	Z+8, r1	; 0x08
     8aa:	08 95       	ret

000008ac <_ZN7Encoder16getMissedCwCountEv>:
     8ac:	fc 01       	movw	r30, r24
     8ae:	81 85       	ldd	r24, Z+9	; 0x09
     8b0:	92 85       	ldd	r25, Z+10	; 0x0a
     8b2:	12 86       	std	Z+10, r1	; 0x0a
     8b4:	11 86       	std	Z+9, r1	; 0x09
     8b6:	08 95       	ret

000008b8 <_ZN7Encoder17getMissedCcwCountEv>:
     8b8:	fc 01       	movw	r30, r24
     8ba:	83 85       	ldd	r24, Z+11	; 0x0b
     8bc:	94 85       	ldd	r25, Z+12	; 0x0c
     8be:	14 86       	std	Z+12, r1	; 0x0c
     8c0:	13 86       	std	Z+11, r1	; 0x0b
     8c2:	08 95       	ret

000008c4 <_ZN7Encoder12setEventRateEh>:
     8c4:	70 e0       	ldi	r23, 0x00	; 0
     8c6:	fc 01       	movw	r30, r24
     8c8:	76 87       	std	Z+14, r23	; 0x0e
     8ca:	65 87       	std	Z+13, r22	; 0x0d
     8cc:	08 95       	ret

000008ce <_ZN5Clock4tickEv>:
     8ce:	0f 93       	push	r16
     8d0:	1f 93       	push	r17
     8d2:	cf 93       	push	r28
     8d4:	df 93       	push	r29
     8d6:	80 91 49 03 	lds	r24, 0x0349	; 0x800349 <_ZN5Clock8sysclockE>
     8da:	90 91 4a 03 	lds	r25, 0x034A	; 0x80034a <_ZN5Clock8sysclockE+0x1>
     8de:	a0 91 4b 03 	lds	r26, 0x034B	; 0x80034b <_ZN5Clock8sysclockE+0x2>
     8e2:	b0 91 4c 03 	lds	r27, 0x034C	; 0x80034c <_ZN5Clock8sysclockE+0x3>
     8e6:	01 96       	adiw	r24, 0x01	; 1
     8e8:	a1 1d       	adc	r26, r1
     8ea:	b1 1d       	adc	r27, r1
     8ec:	80 93 49 03 	sts	0x0349, r24	; 0x800349 <_ZN5Clock8sysclockE>
     8f0:	90 93 4a 03 	sts	0x034A, r25	; 0x80034a <_ZN5Clock8sysclockE+0x1>
     8f4:	a0 93 4b 03 	sts	0x034B, r26	; 0x80034b <_ZN5Clock8sysclockE+0x2>
     8f8:	b0 93 4c 03 	sts	0x034C, r27	; 0x80034c <_ZN5Clock8sysclockE+0x3>
     8fc:	80 91 45 03 	lds	r24, 0x0345	; 0x800345 <_ZN5Clock9delayTimeE>
     900:	90 91 46 03 	lds	r25, 0x0346	; 0x800346 <_ZN5Clock9delayTimeE+0x1>
     904:	a0 91 47 03 	lds	r26, 0x0347	; 0x800347 <_ZN5Clock9delayTimeE+0x2>
     908:	b0 91 48 03 	lds	r27, 0x0348	; 0x800348 <_ZN5Clock9delayTimeE+0x3>
     90c:	89 2b       	or	r24, r25
     90e:	8a 2b       	or	r24, r26
     910:	8b 2b       	or	r24, r27
     912:	99 f0       	breq	.+38     	; 0x93a <__stack+0x3b>
     914:	80 91 45 03 	lds	r24, 0x0345	; 0x800345 <_ZN5Clock9delayTimeE>
     918:	90 91 46 03 	lds	r25, 0x0346	; 0x800346 <_ZN5Clock9delayTimeE+0x1>
     91c:	a0 91 47 03 	lds	r26, 0x0347	; 0x800347 <_ZN5Clock9delayTimeE+0x2>
     920:	b0 91 48 03 	lds	r27, 0x0348	; 0x800348 <_ZN5Clock9delayTimeE+0x3>
     924:	01 97       	sbiw	r24, 0x01	; 1
     926:	a1 09       	sbc	r26, r1
     928:	b1 09       	sbc	r27, r1
     92a:	80 93 45 03 	sts	0x0345, r24	; 0x800345 <_ZN5Clock9delayTimeE>
     92e:	90 93 46 03 	sts	0x0346, r25	; 0x800346 <_ZN5Clock9delayTimeE+0x1>
     932:	a0 93 47 03 	sts	0x0347, r26	; 0x800347 <_ZN5Clock9delayTimeE+0x2>
     936:	b0 93 48 03 	sts	0x0348, r27	; 0x800348 <_ZN5Clock9delayTimeE+0x3>
     93a:	04 e3       	ldi	r16, 0x34	; 52
     93c:	13 e0       	ldi	r17, 0x03	; 3
     93e:	c0 e0       	ldi	r28, 0x00	; 0
     940:	d0 e0       	ldi	r29, 0x00	; 0
     942:	d8 01       	movw	r26, r16
     944:	8d 91       	ld	r24, X+
     946:	9d 91       	ld	r25, X+
     948:	8d 01       	movw	r16, r26
     94a:	00 97       	sbiw	r24, 0x00	; 0
     94c:	e1 f0       	breq	.+56     	; 0x986 <__stack+0x87>
     94e:	9e 01       	movw	r18, r28
     950:	22 0f       	add	r18, r18
     952:	33 1f       	adc	r19, r19
     954:	f9 01       	movw	r30, r18
     956:	e0 5f       	subi	r30, 0xF0	; 240
     958:	fc 4f       	sbci	r31, 0xFC	; 252
     95a:	40 81       	ld	r20, Z
     95c:	51 81       	ldd	r21, Z+1	; 0x01
     95e:	41 50       	subi	r20, 0x01	; 1
     960:	51 09       	sbc	r21, r1
     962:	51 83       	std	Z+1, r21	; 0x01
     964:	40 83       	st	Z, r20
     966:	45 2b       	or	r20, r21
     968:	71 f4       	brne	.+28     	; 0x986 <__stack+0x87>
     96a:	d9 01       	movw	r26, r18
     96c:	a0 5e       	subi	r26, 0xE0	; 224
     96e:	bc 4f       	sbci	r27, 0xFC	; 252
     970:	2d 91       	ld	r18, X+
     972:	3c 91       	ld	r19, X
     974:	31 83       	std	Z+1, r19	; 0x01
     976:	20 83       	st	Z, r18
     978:	dc 01       	movw	r26, r24
     97a:	ed 91       	ld	r30, X+
     97c:	fc 91       	ld	r31, X
     97e:	01 90       	ld	r0, Z+
     980:	f0 81       	ld	r31, Z
     982:	e0 2d       	mov	r30, r0
     984:	09 95       	icall
     986:	21 96       	adiw	r28, 0x01	; 1
     988:	c8 30       	cpi	r28, 0x08	; 8
     98a:	d1 05       	cpc	r29, r1
     98c:	d1 f6       	brne	.-76     	; 0x942 <__stack+0x43>
     98e:	c0 e3       	ldi	r28, 0x30	; 48
     990:	d3 e0       	ldi	r29, 0x03	; 3
     992:	00 e0       	ldi	r16, 0x00	; 0
     994:	10 e0       	ldi	r17, 0x00	; 0
     996:	88 81       	ld	r24, Y
     998:	99 81       	ldd	r25, Y+1	; 0x01
     99a:	00 97       	sbiw	r24, 0x00	; 0
     99c:	b1 f0       	breq	.+44     	; 0x9ca <__stack+0xcb>
     99e:	f8 01       	movw	r30, r16
     9a0:	ee 0f       	add	r30, r30
     9a2:	ff 1f       	adc	r31, r31
     9a4:	e4 5f       	subi	r30, 0xF4	; 244
     9a6:	fc 4f       	sbci	r31, 0xFC	; 252
     9a8:	20 81       	ld	r18, Z
     9aa:	31 81       	ldd	r19, Z+1	; 0x01
     9ac:	21 50       	subi	r18, 0x01	; 1
     9ae:	31 09       	sbc	r19, r1
     9b0:	31 83       	std	Z+1, r19	; 0x01
     9b2:	20 83       	st	Z, r18
     9b4:	23 2b       	or	r18, r19
     9b6:	49 f4       	brne	.+18     	; 0x9ca <__stack+0xcb>
     9b8:	dc 01       	movw	r26, r24
     9ba:	ed 91       	ld	r30, X+
     9bc:	fc 91       	ld	r31, X
     9be:	01 90       	ld	r0, Z+
     9c0:	f0 81       	ld	r31, Z
     9c2:	e0 2d       	mov	r30, r0
     9c4:	09 95       	icall
     9c6:	19 82       	std	Y+1, r1	; 0x01
     9c8:	18 82       	st	Y, r1
     9ca:	22 96       	adiw	r28, 0x02	; 2
     9cc:	01 30       	cpi	r16, 0x01	; 1
     9ce:	11 05       	cpc	r17, r1
     9d0:	19 f0       	breq	.+6      	; 0x9d8 <__stack+0xd9>
     9d2:	01 e0       	ldi	r16, 0x01	; 1
     9d4:	10 e0       	ldi	r17, 0x00	; 0
     9d6:	df cf       	rjmp	.-66     	; 0x996 <__stack+0x97>
     9d8:	df 91       	pop	r29
     9da:	cf 91       	pop	r28
     9dc:	1f 91       	pop	r17
     9de:	0f 91       	pop	r16
     9e0:	08 95       	ret

000009e2 <__vector_7>:
     9e2:	1f 92       	push	r1
     9e4:	0f 92       	push	r0
     9e6:	0f b6       	in	r0, 0x3f	; 63
     9e8:	0f 92       	push	r0
     9ea:	11 24       	eor	r1, r1
     9ec:	2f 93       	push	r18
     9ee:	3f 93       	push	r19
     9f0:	4f 93       	push	r20
     9f2:	5f 93       	push	r21
     9f4:	6f 93       	push	r22
     9f6:	7f 93       	push	r23
     9f8:	8f 93       	push	r24
     9fa:	9f 93       	push	r25
     9fc:	af 93       	push	r26
     9fe:	bf 93       	push	r27
     a00:	ef 93       	push	r30
     a02:	ff 93       	push	r31
     a04:	64 df       	rcall	.-312    	; 0x8ce <_ZN5Clock4tickEv>
     a06:	ff 91       	pop	r31
     a08:	ef 91       	pop	r30
     a0a:	bf 91       	pop	r27
     a0c:	af 91       	pop	r26
     a0e:	9f 91       	pop	r25
     a10:	8f 91       	pop	r24
     a12:	7f 91       	pop	r23
     a14:	6f 91       	pop	r22
     a16:	5f 91       	pop	r21
     a18:	4f 91       	pop	r20
     a1a:	3f 91       	pop	r19
     a1c:	2f 91       	pop	r18
     a1e:	0f 90       	pop	r0
     a20:	0f be       	out	0x3f, r0	; 63
     a22:	0f 90       	pop	r0
     a24:	1f 90       	pop	r1
     a26:	18 95       	reti

00000a28 <_ZN5Clock5delayEm>:
     a28:	60 93 45 03 	sts	0x0345, r22	; 0x800345 <_ZN5Clock9delayTimeE>
     a2c:	70 93 46 03 	sts	0x0346, r23	; 0x800346 <_ZN5Clock9delayTimeE+0x1>
     a30:	80 93 47 03 	sts	0x0347, r24	; 0x800347 <_ZN5Clock9delayTimeE+0x2>
     a34:	90 93 48 03 	sts	0x0348, r25	; 0x800348 <_ZN5Clock9delayTimeE+0x3>
     a38:	80 91 45 03 	lds	r24, 0x0345	; 0x800345 <_ZN5Clock9delayTimeE>
     a3c:	90 91 46 03 	lds	r25, 0x0346	; 0x800346 <_ZN5Clock9delayTimeE+0x1>
     a40:	a0 91 47 03 	lds	r26, 0x0347	; 0x800347 <_ZN5Clock9delayTimeE+0x2>
     a44:	b0 91 48 03 	lds	r27, 0x0348	; 0x800348 <_ZN5Clock9delayTimeE+0x3>
     a48:	89 2b       	or	r24, r25
     a4a:	8a 2b       	or	r24, r26
     a4c:	8b 2b       	or	r24, r27
     a4e:	a1 f7       	brne	.-24     	; 0xa38 <_ZN5Clock5delayEm+0x10>
     a50:	08 95       	ret

00000a52 <_ZN5Clock16registerPeriodicEP8Callbackj>:
     a52:	e4 e3       	ldi	r30, 0x34	; 52
     a54:	f3 e0       	ldi	r31, 0x03	; 3
     a56:	20 e0       	ldi	r18, 0x00	; 0
     a58:	30 e0       	ldi	r19, 0x00	; 0
     a5a:	a1 91       	ld	r26, Z+
     a5c:	b1 91       	ld	r27, Z+
     a5e:	a9 01       	movw	r20, r18
     a60:	4f 5f       	subi	r20, 0xFF	; 255
     a62:	5f 4f       	sbci	r21, 0xFF	; 255
     a64:	ab 2b       	or	r26, r27
     a66:	99 f4       	brne	.+38     	; 0xa8e <_ZN5Clock16registerPeriodicEP8Callbackj+0x3c>
     a68:	22 0f       	add	r18, r18
     a6a:	33 1f       	adc	r19, r19
     a6c:	f9 01       	movw	r30, r18
     a6e:	ec 5c       	subi	r30, 0xCC	; 204
     a70:	fc 4f       	sbci	r31, 0xFC	; 252
     a72:	91 83       	std	Z+1, r25	; 0x01
     a74:	80 83       	st	Z, r24
     a76:	f9 01       	movw	r30, r18
     a78:	e0 5e       	subi	r30, 0xE0	; 224
     a7a:	fc 4f       	sbci	r31, 0xFC	; 252
     a7c:	71 83       	std	Z+1, r23	; 0x01
     a7e:	60 83       	st	Z, r22
     a80:	f9 01       	movw	r30, r18
     a82:	e0 5f       	subi	r30, 0xF0	; 240
     a84:	fc 4f       	sbci	r31, 0xFC	; 252
     a86:	71 83       	std	Z+1, r23	; 0x01
     a88:	60 83       	st	Z, r22
     a8a:	ca 01       	movw	r24, r20
     a8c:	08 95       	ret
     a8e:	9a 01       	movw	r18, r20
     a90:	48 30       	cpi	r20, 0x08	; 8
     a92:	51 05       	cpc	r21, r1
     a94:	11 f7       	brne	.-60     	; 0xa5a <_ZN5Clock16registerPeriodicEP8Callbackj+0x8>
     a96:	80 e0       	ldi	r24, 0x00	; 0
     a98:	90 e0       	ldi	r25, 0x00	; 0
     a9a:	08 95       	ret

00000a9c <_ZN5Clock15registerOneshotEP8Callbackj>:
     a9c:	20 91 30 03 	lds	r18, 0x0330	; 0x800330 <_ZN5Clock11singleTasksE>
     aa0:	30 91 31 03 	lds	r19, 0x0331	; 0x800331 <_ZN5Clock11singleTasksE+0x1>
     aa4:	23 2b       	or	r18, r19
     aa6:	49 f0       	breq	.+18     	; 0xaba <_ZN5Clock15registerOneshotEP8Callbackj+0x1e>
     aa8:	20 91 32 03 	lds	r18, 0x0332	; 0x800332 <_ZN5Clock11singleTasksE+0x2>
     aac:	30 91 33 03 	lds	r19, 0x0333	; 0x800333 <_ZN5Clock11singleTasksE+0x3>
     ab0:	23 2b       	or	r18, r19
     ab2:	a9 f4       	brne	.+42     	; 0xade <_ZN5Clock15registerOneshotEP8Callbackj+0x42>
     ab4:	21 e0       	ldi	r18, 0x01	; 1
     ab6:	30 e0       	ldi	r19, 0x00	; 0
     ab8:	02 c0       	rjmp	.+4      	; 0xabe <_ZN5Clock15registerOneshotEP8Callbackj+0x22>
     aba:	20 e0       	ldi	r18, 0x00	; 0
     abc:	30 e0       	ldi	r19, 0x00	; 0
     abe:	a9 01       	movw	r20, r18
     ac0:	44 0f       	add	r20, r20
     ac2:	55 1f       	adc	r21, r21
     ac4:	fa 01       	movw	r30, r20
     ac6:	e0 5d       	subi	r30, 0xD0	; 208
     ac8:	fc 4f       	sbci	r31, 0xFC	; 252
     aca:	91 83       	std	Z+1, r25	; 0x01
     acc:	80 83       	st	Z, r24
     ace:	fa 01       	movw	r30, r20
     ad0:	e4 5f       	subi	r30, 0xF4	; 244
     ad2:	fc 4f       	sbci	r31, 0xFC	; 252
     ad4:	71 83       	std	Z+1, r23	; 0x01
     ad6:	60 83       	st	Z, r22
     ad8:	c9 01       	movw	r24, r18
     ada:	01 96       	adiw	r24, 0x01	; 1
     adc:	08 95       	ret
     ade:	80 e0       	ldi	r24, 0x00	; 0
     ae0:	90 e0       	ldi	r25, 0x00	; 0
     ae2:	08 95       	ret

00000ae4 <_ZN5Clock13cancelOneshotEi>:
     ae4:	00 97       	sbiw	r24, 0x00	; 0
     ae6:	51 f0       	breq	.+20     	; 0xafc <_ZN5Clock13cancelOneshotEi+0x18>
     ae8:	83 30       	cpi	r24, 0x03	; 3
     aea:	91 05       	cpc	r25, r1
     aec:	3c f4       	brge	.+14     	; 0xafc <_ZN5Clock13cancelOneshotEi+0x18>
     aee:	88 0f       	add	r24, r24
     af0:	99 1f       	adc	r25, r25
     af2:	fc 01       	movw	r30, r24
     af4:	e2 5d       	subi	r30, 0xD2	; 210
     af6:	fc 4f       	sbci	r31, 0xFC	; 252
     af8:	11 82       	std	Z+1, r1	; 0x01
     afa:	10 82       	st	Z, r1
     afc:	08 95       	ret

00000afe <_ZN5ClockC1Ev>:
     afe:	f8 94       	cli
     b00:	82 e0       	ldi	r24, 0x02	; 2
     b02:	80 93 b0 00 	sts	0x00B0, r24	; 0x8000b0 <__TEXT_REGION_LENGTH__+0x7e00b0>
     b06:	97 e0       	ldi	r25, 0x07	; 7
     b08:	90 93 b1 00 	sts	0x00B1, r25	; 0x8000b1 <__TEXT_REGION_LENGTH__+0x7e00b1>
     b0c:	10 92 b2 00 	sts	0x00B2, r1	; 0x8000b2 <__TEXT_REGION_LENGTH__+0x7e00b2>
     b10:	9d e9       	ldi	r25, 0x9D	; 157
     b12:	90 93 b3 00 	sts	0x00B3, r25	; 0x8000b3 <__TEXT_REGION_LENGTH__+0x7e00b3>
     b16:	80 93 70 00 	sts	0x0070, r24	; 0x800070 <__TEXT_REGION_LENGTH__+0x7e0070>
     b1a:	10 92 49 03 	sts	0x0349, r1	; 0x800349 <_ZN5Clock8sysclockE>
     b1e:	10 92 4a 03 	sts	0x034A, r1	; 0x80034a <_ZN5Clock8sysclockE+0x1>
     b22:	10 92 4b 03 	sts	0x034B, r1	; 0x80034b <_ZN5Clock8sysclockE+0x2>
     b26:	10 92 4c 03 	sts	0x034C, r1	; 0x80034c <_ZN5Clock8sysclockE+0x3>
     b2a:	10 92 44 03 	sts	0x0344, r1	; 0x800344 <_ZN5Clock5countE>
     b2e:	e4 e3       	ldi	r30, 0x34	; 52
     b30:	f3 e0       	ldi	r31, 0x03	; 3
     b32:	11 92       	st	Z+, r1
     b34:	11 92       	st	Z+, r1
     b36:	83 e0       	ldi	r24, 0x03	; 3
     b38:	e4 34       	cpi	r30, 0x44	; 68
     b3a:	f8 07       	cpc	r31, r24
     b3c:	d1 f7       	brne	.-12     	; 0xb32 <_ZN5ClockC1Ev+0x34>
     b3e:	e0 e3       	ldi	r30, 0x30	; 48
     b40:	f3 e0       	ldi	r31, 0x03	; 3
     b42:	11 92       	st	Z+, r1
     b44:	11 92       	st	Z+, r1
     b46:	83 e0       	ldi	r24, 0x03	; 3
     b48:	e0 34       	cpi	r30, 0x40	; 64
     b4a:	f8 07       	cpc	r31, r24
     b4c:	d1 f7       	brne	.-12     	; 0xb42 <_ZN5ClockC1Ev+0x44>
     b4e:	78 94       	sei
     b50:	08 95       	ret

00000b52 <_Z7usecDlyi>:
     b52:	08 95       	ret

00000b54 <DdsInit>:
     b54:	cf 93       	push	r28
     b56:	df 93       	push	r29
     b58:	1f 92       	push	r1
     b5a:	cd b7       	in	r28, 0x3d	; 61
     b5c:	de b7       	in	r29, 0x3e	; 62
     b5e:	84 b1       	in	r24, 0x04	; 4
     b60:	89 83       	std	Y+1, r24	; 0x01
     b62:	89 81       	ldd	r24, Y+1	; 0x01
     b64:	87 62       	ori	r24, 0x27	; 39
     b66:	89 83       	std	Y+1, r24	; 0x01
     b68:	89 81       	ldd	r24, Y+1	; 0x01
     b6a:	84 b9       	out	0x04, r24	; 4
     b6c:	85 b1       	in	r24, 0x05	; 5
     b6e:	89 83       	std	Y+1, r24	; 0x01
     b70:	89 81       	ldd	r24, Y+1	; 0x01
     b72:	88 7d       	andi	r24, 0xD8	; 216
     b74:	89 83       	std	Y+1, r24	; 0x01
     b76:	89 81       	ldd	r24, Y+1	; 0x01
     b78:	85 b9       	out	0x05, r24	; 5
     b7a:	89 81       	ldd	r24, Y+1	; 0x01
     b7c:	81 60       	ori	r24, 0x01	; 1
     b7e:	89 83       	std	Y+1, r24	; 0x01
     b80:	89 81       	ldd	r24, Y+1	; 0x01
     b82:	85 b9       	out	0x05, r24	; 5
     b84:	89 81       	ldd	r24, Y+1	; 0x01
     b86:	8e 7f       	andi	r24, 0xFE	; 254
     b88:	89 83       	std	Y+1, r24	; 0x01
     b8a:	89 81       	ldd	r24, Y+1	; 0x01
     b8c:	85 b9       	out	0x05, r24	; 5
     b8e:	89 81       	ldd	r24, Y+1	; 0x01
     b90:	82 60       	ori	r24, 0x02	; 2
     b92:	89 83       	std	Y+1, r24	; 0x01
     b94:	89 81       	ldd	r24, Y+1	; 0x01
     b96:	85 b9       	out	0x05, r24	; 5
     b98:	89 81       	ldd	r24, Y+1	; 0x01
     b9a:	8d 7f       	andi	r24, 0xFD	; 253
     b9c:	89 83       	std	Y+1, r24	; 0x01
     b9e:	89 81       	ldd	r24, Y+1	; 0x01
     ba0:	85 b9       	out	0x05, r24	; 5
     ba2:	0f 90       	pop	r0
     ba4:	df 91       	pop	r29
     ba6:	cf 91       	pop	r28
     ba8:	08 95       	ret

00000baa <dds>:
     baa:	cf 93       	push	r28
     bac:	df 93       	push	r29
     bae:	1f 92       	push	r1
     bb0:	cd b7       	in	r28, 0x3d	; 61
     bb2:	de b7       	in	r29, 0x3e	; 62
     bb4:	f8 94       	cli
     bb6:	25 b1       	in	r18, 0x05	; 5
     bb8:	29 83       	std	Y+1, r18	; 0x01
     bba:	29 81       	ldd	r18, Y+1	; 0x01
     bbc:	28 7d       	andi	r18, 0xD8	; 216
     bbe:	29 83       	std	Y+1, r18	; 0x01
     bc0:	29 81       	ldd	r18, Y+1	; 0x01
     bc2:	25 b9       	out	0x05, r18	; 5
     bc4:	2f e5       	ldi	r18, 0x5F	; 95
     bc6:	30 e7       	ldi	r19, 0x70	; 112
     bc8:	49 e0       	ldi	r20, 0x09	; 9
     bca:	52 e4       	ldi	r21, 0x42	; 66
     bcc:	0e 94 dd 14 	call	0x29ba	; 0x29ba <__mulsf3>
     bd0:	0e 94 4b 14 	call	0x2896	; 0x2896 <__fixunssfsi>
     bd4:	40 e2       	ldi	r20, 0x20	; 32
     bd6:	50 e0       	ldi	r21, 0x00	; 0
     bd8:	29 81       	ldd	r18, Y+1	; 0x01
     bda:	60 ff       	sbrs	r22, 0
     bdc:	02 c0       	rjmp	.+4      	; 0xbe2 <dds+0x38>
     bde:	24 60       	ori	r18, 0x04	; 4
     be0:	01 c0       	rjmp	.+2      	; 0xbe4 <dds+0x3a>
     be2:	2b 7f       	andi	r18, 0xFB	; 251
     be4:	29 83       	std	Y+1, r18	; 0x01
     be6:	29 81       	ldd	r18, Y+1	; 0x01
     be8:	25 b9       	out	0x05, r18	; 5
     bea:	29 81       	ldd	r18, Y+1	; 0x01
     bec:	21 60       	ori	r18, 0x01	; 1
     bee:	29 83       	std	Y+1, r18	; 0x01
     bf0:	29 81       	ldd	r18, Y+1	; 0x01
     bf2:	25 b9       	out	0x05, r18	; 5
     bf4:	29 81       	ldd	r18, Y+1	; 0x01
     bf6:	2e 7f       	andi	r18, 0xFE	; 254
     bf8:	29 83       	std	Y+1, r18	; 0x01
     bfa:	29 81       	ldd	r18, Y+1	; 0x01
     bfc:	25 b9       	out	0x05, r18	; 5
     bfe:	96 95       	lsr	r25
     c00:	87 95       	ror	r24
     c02:	77 95       	ror	r23
     c04:	67 95       	ror	r22
     c06:	41 50       	subi	r20, 0x01	; 1
     c08:	51 09       	sbc	r21, r1
     c0a:	31 f7       	brne	.-52     	; 0xbd8 <dds+0x2e>
     c0c:	89 81       	ldd	r24, Y+1	; 0x01
     c0e:	8b 7f       	andi	r24, 0xFB	; 251
     c10:	89 83       	std	Y+1, r24	; 0x01
     c12:	89 81       	ldd	r24, Y+1	; 0x01
     c14:	85 b9       	out	0x05, r24	; 5
     c16:	88 e0       	ldi	r24, 0x08	; 8
     c18:	90 e0       	ldi	r25, 0x00	; 0
     c1a:	29 81       	ldd	r18, Y+1	; 0x01
     c1c:	21 60       	ori	r18, 0x01	; 1
     c1e:	29 83       	std	Y+1, r18	; 0x01
     c20:	29 81       	ldd	r18, Y+1	; 0x01
     c22:	25 b9       	out	0x05, r18	; 5
     c24:	29 81       	ldd	r18, Y+1	; 0x01
     c26:	2e 7f       	andi	r18, 0xFE	; 254
     c28:	29 83       	std	Y+1, r18	; 0x01
     c2a:	29 81       	ldd	r18, Y+1	; 0x01
     c2c:	25 b9       	out	0x05, r18	; 5
     c2e:	01 97       	sbiw	r24, 0x01	; 1
     c30:	a1 f7       	brne	.-24     	; 0xc1a <dds+0x70>
     c32:	89 81       	ldd	r24, Y+1	; 0x01
     c34:	82 60       	ori	r24, 0x02	; 2
     c36:	89 83       	std	Y+1, r24	; 0x01
     c38:	89 81       	ldd	r24, Y+1	; 0x01
     c3a:	85 b9       	out	0x05, r24	; 5
     c3c:	89 81       	ldd	r24, Y+1	; 0x01
     c3e:	8d 7f       	andi	r24, 0xFD	; 253
     c40:	89 83       	std	Y+1, r24	; 0x01
     c42:	89 81       	ldd	r24, Y+1	; 0x01
     c44:	85 b9       	out	0x05, r24	; 5
     c46:	78 94       	sei
     c48:	0f 90       	pop	r0
     c4a:	df 91       	pop	r29
     c4c:	cf 91       	pop	r28
     c4e:	08 95       	ret

00000c50 <_ZN8Graphics10draw2xCharEchh9_pixColorS0_>:
     c50:	6f 92       	push	r6
     c52:	7f 92       	push	r7
     c54:	8f 92       	push	r8
     c56:	9f 92       	push	r9
     c58:	af 92       	push	r10
     c5a:	bf 92       	push	r11
     c5c:	cf 92       	push	r12
     c5e:	df 92       	push	r13
     c60:	ef 92       	push	r14
     c62:	ff 92       	push	r15
     c64:	0f 93       	push	r16
     c66:	1f 93       	push	r17
     c68:	cf 93       	push	r28
     c6a:	df 93       	push	r29
     c6c:	cd b7       	in	r28, 0x3d	; 61
     c6e:	de b7       	in	r29, 0x3e	; 62
     c70:	ed 97       	sbiw	r28, 0x3d	; 61
     c72:	0f b6       	in	r0, 0x3f	; 63
     c74:	f8 94       	cli
     c76:	de bf       	out	0x3e, r29	; 62
     c78:	0f be       	out	0x3f, r0	; 63
     c7a:	cd bf       	out	0x3d, r28	; 61
     c7c:	96 2e       	mov	r9, r22
     c7e:	de 2c       	mov	r13, r14
     c80:	8f 2c       	mov	r8, r15
     c82:	f8 94       	cli
     c84:	19 82       	std	Y+1, r1	; 0x01
     c86:	2a 83       	std	Y+2, r18	; 0x02
     c88:	1b 82       	std	Y+3, r1	; 0x03
     c8a:	21 5f       	subi	r18, 0xF1	; 241
     c8c:	2c 83       	std	Y+4, r18	; 0x04
     c8e:	8a e2       	ldi	r24, 0x2A	; 42
     c90:	4d af       	std	Y+61, r20	; 0x3d
     c92:	ba d0       	rcall	.+372    	; 0xe08 <_ZN3Lcd7sendCmdEh>
     c94:	64 e0       	ldi	r22, 0x04	; 4
     c96:	ce 01       	movw	r24, r28
     c98:	01 96       	adiw	r24, 0x01	; 1
     c9a:	c7 d0       	rcall	.+398    	; 0xe2a <_ZN3Lcd8sendDataEPhh>
     c9c:	ef d0       	rcall	.+478    	; 0xe7c <_ZN3Lcd8cmpltCmdEv>
     c9e:	19 82       	std	Y+1, r1	; 0x01
     ca0:	4d ad       	ldd	r20, Y+61	; 0x3d
     ca2:	4a 83       	std	Y+2, r20	; 0x02
     ca4:	1b 82       	std	Y+3, r1	; 0x03
     ca6:	49 5e       	subi	r20, 0xE9	; 233
     ca8:	4c 83       	std	Y+4, r20	; 0x04
     caa:	8b e2       	ldi	r24, 0x2B	; 43
     cac:	ad d0       	rcall	.+346    	; 0xe08 <_ZN3Lcd7sendCmdEh>
     cae:	64 e0       	ldi	r22, 0x04	; 4
     cb0:	ce 01       	movw	r24, r28
     cb2:	01 96       	adiw	r24, 0x01	; 1
     cb4:	ba d0       	rcall	.+372    	; 0xe2a <_ZN3Lcd8sendDataEPhh>
     cb6:	e2 d0       	rcall	.+452    	; 0xe7c <_ZN3Lcd8cmpltCmdEv>
     cb8:	be 01       	movw	r22, r28
     cba:	6f 5c       	subi	r22, 0xCF	; 207
     cbc:	7f 4f       	sbci	r23, 0xFF	; 255
     cbe:	89 2d       	mov	r24, r9
     cc0:	f1 dc       	rcall	.-1566   	; 0x6a4 <_getPixels>
     cc2:	8c e2       	ldi	r24, 0x2C	; 44
     cc4:	a1 d0       	rcall	.+322    	; 0xe08 <_ZN3Lcd7sendCmdEh>
     cc6:	e1 2c       	mov	r14, r1
     cc8:	f1 2c       	mov	r15, r1
     cca:	f7 01       	movw	r30, r14
     ccc:	f5 95       	asr	r31
     cce:	e7 95       	ror	r30
     cd0:	81 e3       	ldi	r24, 0x31	; 49
     cd2:	90 e0       	ldi	r25, 0x00	; 0
     cd4:	8c 0f       	add	r24, r28
     cd6:	9d 1f       	adc	r25, r29
     cd8:	e8 0f       	add	r30, r24
     cda:	f9 1f       	adc	r31, r25
     cdc:	90 80       	ld	r9, Z
     cde:	de 01       	movw	r26, r28
     ce0:	11 96       	adiw	r26, 0x01	; 1
     ce2:	3d 01       	movw	r6, r26
     ce4:	fe 01       	movw	r30, r28
     ce6:	36 96       	adiw	r30, 0x06	; 6
     ce8:	16 e0       	ldi	r17, 0x06	; 6
     cea:	bf 01       	movw	r22, r30
     cec:	64 50       	subi	r22, 0x04	; 4
     cee:	71 09       	sbc	r23, r1
     cf0:	af 01       	movw	r20, r30
     cf2:	43 50       	subi	r20, 0x03	; 3
     cf4:	51 09       	sbc	r21, r1
     cf6:	9f 01       	movw	r18, r30
     cf8:	22 50       	subi	r18, 0x02	; 2
     cfa:	31 09       	sbc	r19, r1
     cfc:	cf 01       	movw	r24, r30
     cfe:	01 97       	sbiw	r24, 0x01	; 1
     d00:	d3 01       	movw	r26, r6
     d02:	90 fe       	sbrs	r9, 0
     d04:	0b c0       	rjmp	.+22     	; 0xd1c <_ZN8Graphics10draw2xCharEchh9_pixColorS0_+0xcc>
     d06:	dc 92       	st	X, r13
     d08:	db 01       	movw	r26, r22
     d0a:	8c 92       	st	X, r8
     d0c:	da 01       	movw	r26, r20
     d0e:	0c 93       	st	X, r16
     d10:	d9 01       	movw	r26, r18
     d12:	dc 92       	st	X, r13
     d14:	dc 01       	movw	r26, r24
     d16:	8c 92       	st	X, r8
     d18:	00 83       	st	Z, r16
     d1a:	0a c0       	rjmp	.+20     	; 0xd30 <_ZN8Graphics10draw2xCharEchh9_pixColorS0_+0xe0>
     d1c:	ac 92       	st	X, r10
     d1e:	db 01       	movw	r26, r22
     d20:	bc 92       	st	X, r11
     d22:	da 01       	movw	r26, r20
     d24:	cc 92       	st	X, r12
     d26:	d9 01       	movw	r26, r18
     d28:	ac 92       	st	X, r10
     d2a:	dc 01       	movw	r26, r24
     d2c:	bc 92       	st	X, r11
     d2e:	c0 82       	st	Z, r12
     d30:	96 94       	lsr	r9
     d32:	1a 5f       	subi	r17, 0xFA	; 250
     d34:	b6 e0       	ldi	r27, 0x06	; 6
     d36:	6b 0e       	add	r6, r27
     d38:	71 1c       	adc	r7, r1
     d3a:	36 96       	adiw	r30, 0x06	; 6
     d3c:	16 33       	cpi	r17, 0x36	; 54
     d3e:	a9 f6       	brne	.-86     	; 0xcea <_ZN8Graphics10draw2xCharEchh9_pixColorS0_+0x9a>
     d40:	60 e3       	ldi	r22, 0x30	; 48
     d42:	ce 01       	movw	r24, r28
     d44:	01 96       	adiw	r24, 0x01	; 1
     d46:	71 d0       	rcall	.+226    	; 0xe2a <_ZN3Lcd8sendDataEPhh>
     d48:	8f ef       	ldi	r24, 0xFF	; 255
     d4a:	e8 1a       	sub	r14, r24
     d4c:	f8 0a       	sbc	r15, r24
     d4e:	98 e1       	ldi	r25, 0x18	; 24
     d50:	e9 16       	cp	r14, r25
     d52:	f1 04       	cpc	r15, r1
     d54:	09 f0       	breq	.+2      	; 0xd58 <_ZN8Graphics10draw2xCharEchh9_pixColorS0_+0x108>
     d56:	b9 cf       	rjmp	.-142    	; 0xcca <_ZN8Graphics10draw2xCharEchh9_pixColorS0_+0x7a>
     d58:	91 d0       	rcall	.+290    	; 0xe7c <_ZN3Lcd8cmpltCmdEv>
     d5a:	78 94       	sei
     d5c:	ed 96       	adiw	r28, 0x3d	; 61
     d5e:	0f b6       	in	r0, 0x3f	; 63
     d60:	f8 94       	cli
     d62:	de bf       	out	0x3e, r29	; 62
     d64:	0f be       	out	0x3f, r0	; 63
     d66:	cd bf       	out	0x3d, r28	; 61
     d68:	df 91       	pop	r29
     d6a:	cf 91       	pop	r28
     d6c:	1f 91       	pop	r17
     d6e:	0f 91       	pop	r16
     d70:	ff 90       	pop	r15
     d72:	ef 90       	pop	r14
     d74:	df 90       	pop	r13
     d76:	cf 90       	pop	r12
     d78:	bf 90       	pop	r11
     d7a:	af 90       	pop	r10
     d7c:	9f 90       	pop	r9
     d7e:	8f 90       	pop	r8
     d80:	7f 90       	pop	r7
     d82:	6f 90       	pop	r6
     d84:	08 95       	ret

00000d86 <_ZN3Lcd5resetEv>:
     d86:	cf 93       	push	r28
     d88:	df 93       	push	r29
     d8a:	1f 92       	push	r1
     d8c:	cd b7       	in	r28, 0x3d	; 61
     d8e:	de b7       	in	r29, 0x3e	; 62
     d90:	8b b1       	in	r24, 0x0b	; 11
     d92:	89 83       	std	Y+1, r24	; 0x01
     d94:	89 81       	ldd	r24, Y+1	; 0x01
     d96:	8f 7d       	andi	r24, 0xDF	; 223
     d98:	89 83       	std	Y+1, r24	; 0x01
     d9a:	89 81       	ldd	r24, Y+1	; 0x01
     d9c:	8b b9       	out	0x0b, r24	; 11
     d9e:	80 ea       	ldi	r24, 0xA0	; 160
     da0:	90 e0       	ldi	r25, 0x00	; 0
     da2:	d7 de       	rcall	.-594    	; 0xb52 <_Z7usecDlyi>
     da4:	89 81       	ldd	r24, Y+1	; 0x01
     da6:	80 62       	ori	r24, 0x20	; 32
     da8:	89 83       	std	Y+1, r24	; 0x01
     daa:	89 81       	ldd	r24, Y+1	; 0x01
     dac:	8b b9       	out	0x0b, r24	; 11
     dae:	6d e0       	ldi	r22, 0x0D	; 13
     db0:	70 e0       	ldi	r23, 0x00	; 0
     db2:	80 e0       	ldi	r24, 0x00	; 0
     db4:	90 e0       	ldi	r25, 0x00	; 0
     db6:	38 de       	rcall	.-912    	; 0xa28 <_ZN5Clock5delayEm>
     db8:	0f 90       	pop	r0
     dba:	df 91       	pop	r29
     dbc:	cf 91       	pop	r28
     dbe:	08 95       	ret

00000dc0 <_ZN3Lcd8sendByteEh>:
     dc0:	cf 93       	push	r28
     dc2:	df 93       	push	r29
     dc4:	00 d0       	rcall	.+0      	; 0xdc6 <_ZN3Lcd8sendByteEh+0x6>
     dc6:	cd b7       	in	r28, 0x3d	; 61
     dc8:	de b7       	in	r29, 0x3e	; 62
     dca:	9b b1       	in	r25, 0x0b	; 11
     dcc:	9a 83       	std	Y+2, r25	; 0x02
     dce:	9a 81       	ldd	r25, Y+2	; 0x02
     dd0:	99 83       	std	Y+1, r25	; 0x01
     dd2:	28 e0       	ldi	r18, 0x08	; 8
     dd4:	30 e0       	ldi	r19, 0x00	; 0
     dd6:	99 81       	ldd	r25, Y+1	; 0x01
     dd8:	87 ff       	sbrs	r24, 7
     dda:	02 c0       	rjmp	.+4      	; 0xde0 <_ZN3Lcd8sendByteEh+0x20>
     ddc:	98 60       	ori	r25, 0x08	; 8
     dde:	01 c0       	rjmp	.+2      	; 0xde2 <_ZN3Lcd8sendByteEh+0x22>
     de0:	97 7f       	andi	r25, 0xF7	; 247
     de2:	99 83       	std	Y+1, r25	; 0x01
     de4:	99 81       	ldd	r25, Y+1	; 0x01
     de6:	9b b9       	out	0x0b, r25	; 11
     de8:	99 81       	ldd	r25, Y+1	; 0x01
     dea:	94 60       	ori	r25, 0x04	; 4
     dec:	9b b9       	out	0x0b, r25	; 11
     dee:	99 81       	ldd	r25, Y+1	; 0x01
     df0:	9b b9       	out	0x0b, r25	; 11
     df2:	88 0f       	add	r24, r24
     df4:	21 50       	subi	r18, 0x01	; 1
     df6:	31 09       	sbc	r19, r1
     df8:	71 f7       	brne	.-36     	; 0xdd6 <_ZN3Lcd8sendByteEh+0x16>
     dfa:	8a 81       	ldd	r24, Y+2	; 0x02
     dfc:	8b b9       	out	0x0b, r24	; 11
     dfe:	0f 90       	pop	r0
     e00:	0f 90       	pop	r0
     e02:	df 91       	pop	r29
     e04:	cf 91       	pop	r28
     e06:	08 95       	ret

00000e08 <_ZN3Lcd7sendCmdEh>:
     e08:	cf 93       	push	r28
     e0a:	df 93       	push	r29
     e0c:	1f 92       	push	r1
     e0e:	cd b7       	in	r28, 0x3d	; 61
     e10:	de b7       	in	r29, 0x3e	; 62
     e12:	9b b1       	in	r25, 0x0b	; 11
     e14:	99 83       	std	Y+1, r25	; 0x01
     e16:	99 81       	ldd	r25, Y+1	; 0x01
     e18:	9f 7a       	andi	r25, 0xAF	; 175
     e1a:	99 83       	std	Y+1, r25	; 0x01
     e1c:	99 81       	ldd	r25, Y+1	; 0x01
     e1e:	9b b9       	out	0x0b, r25	; 11
     e20:	cf df       	rcall	.-98     	; 0xdc0 <_ZN3Lcd8sendByteEh>
     e22:	0f 90       	pop	r0
     e24:	df 91       	pop	r29
     e26:	cf 91       	pop	r28
     e28:	08 95       	ret

00000e2a <_ZN3Lcd8sendDataEPhh>:
     e2a:	cf 92       	push	r12
     e2c:	df 92       	push	r13
     e2e:	ef 92       	push	r14
     e30:	ff 92       	push	r15
     e32:	0f 93       	push	r16
     e34:	1f 93       	push	r17
     e36:	cf 93       	push	r28
     e38:	df 93       	push	r29
     e3a:	1f 92       	push	r1
     e3c:	cd b7       	in	r28, 0x3d	; 61
     e3e:	de b7       	in	r29, 0x3e	; 62
     e40:	6c 01       	movw	r12, r24
     e42:	8b b1       	in	r24, 0x0b	; 11
     e44:	89 83       	std	Y+1, r24	; 0x01
     e46:	99 81       	ldd	r25, Y+1	; 0x01
     e48:	90 61       	ori	r25, 0x10	; 16
     e4a:	9b b9       	out	0x0b, r25	; 11
     e4c:	76 01       	movw	r14, r12
     e4e:	06 2f       	mov	r16, r22
     e50:	10 e0       	ldi	r17, 0x00	; 0
     e52:	c7 01       	movw	r24, r14
     e54:	8c 19       	sub	r24, r12
     e56:	9d 09       	sbc	r25, r13
     e58:	80 17       	cp	r24, r16
     e5a:	91 07       	cpc	r25, r17
     e5c:	2c f4       	brge	.+10     	; 0xe68 <_ZN3Lcd8sendDataEPhh+0x3e>
     e5e:	f7 01       	movw	r30, r14
     e60:	81 91       	ld	r24, Z+
     e62:	7f 01       	movw	r14, r30
     e64:	ad df       	rcall	.-166    	; 0xdc0 <_ZN3Lcd8sendByteEh>
     e66:	f5 cf       	rjmp	.-22     	; 0xe52 <_ZN3Lcd8sendDataEPhh+0x28>
     e68:	0f 90       	pop	r0
     e6a:	df 91       	pop	r29
     e6c:	cf 91       	pop	r28
     e6e:	1f 91       	pop	r17
     e70:	0f 91       	pop	r16
     e72:	ff 90       	pop	r15
     e74:	ef 90       	pop	r14
     e76:	df 90       	pop	r13
     e78:	cf 90       	pop	r12
     e7a:	08 95       	ret

00000e7c <_ZN3Lcd8cmpltCmdEv>:
     e7c:	8b b1       	in	r24, 0x0b	; 11
     e7e:	83 78       	andi	r24, 0x83	; 131
     e80:	80 66       	ori	r24, 0x60	; 96
     e82:	8b b9       	out	0x0b, r24	; 11
     e84:	08 95       	ret

00000e86 <_ZN3Lcd2onEv>:
     e86:	f8 94       	cli
     e88:	89 e2       	ldi	r24, 0x29	; 41
     e8a:	be df       	rcall	.-132    	; 0xe08 <_ZN3Lcd7sendCmdEh>
     e8c:	f7 df       	rcall	.-18     	; 0xe7c <_ZN3Lcd8cmpltCmdEv>
     e8e:	78 94       	sei
     e90:	08 95       	ret

00000e92 <_ZN3Lcd9sleep_outEv>:
     e92:	f8 94       	cli
     e94:	81 e1       	ldi	r24, 0x11	; 17
     e96:	b8 df       	rcall	.-144    	; 0xe08 <_ZN3Lcd7sendCmdEh>
     e98:	f1 df       	rcall	.-30     	; 0xe7c <_ZN3Lcd8cmpltCmdEv>
     e9a:	78 94       	sei
     e9c:	08 95       	ret

00000e9e <_ZN3Lcd10mem_accessEv>:
     e9e:	cf 93       	push	r28
     ea0:	df 93       	push	r29
     ea2:	1f 92       	push	r1
     ea4:	cd b7       	in	r28, 0x3d	; 61
     ea6:	de b7       	in	r29, 0x3e	; 62
     ea8:	80 ea       	ldi	r24, 0xA0	; 160
     eaa:	89 83       	std	Y+1, r24	; 0x01
     eac:	f8 94       	cli
     eae:	86 e3       	ldi	r24, 0x36	; 54
     eb0:	ab df       	rcall	.-170    	; 0xe08 <_ZN3Lcd7sendCmdEh>
     eb2:	61 e0       	ldi	r22, 0x01	; 1
     eb4:	ce 01       	movw	r24, r28
     eb6:	01 96       	adiw	r24, 0x01	; 1
     eb8:	b8 df       	rcall	.-144    	; 0xe2a <_ZN3Lcd8sendDataEPhh>
     eba:	e0 df       	rcall	.-64     	; 0xe7c <_ZN3Lcd8cmpltCmdEv>
     ebc:	8a e3       	ldi	r24, 0x3A	; 58
     ebe:	a4 df       	rcall	.-184    	; 0xe08 <_ZN3Lcd7sendCmdEh>
     ec0:	86 e0       	ldi	r24, 0x06	; 6
     ec2:	89 83       	std	Y+1, r24	; 0x01
     ec4:	61 e0       	ldi	r22, 0x01	; 1
     ec6:	ce 01       	movw	r24, r28
     ec8:	01 96       	adiw	r24, 0x01	; 1
     eca:	af df       	rcall	.-162    	; 0xe2a <_ZN3Lcd8sendDataEPhh>
     ecc:	d7 df       	rcall	.-82     	; 0xe7c <_ZN3Lcd8cmpltCmdEv>
     ece:	78 94       	sei
     ed0:	0f 90       	pop	r0
     ed2:	df 91       	pop	r29
     ed4:	cf 91       	pop	r28
     ed6:	08 95       	ret

00000ed8 <_ZN3Lcd11lcd_putcharEc>:
     ed8:	af 92       	push	r10
     eda:	bf 92       	push	r11
     edc:	cf 92       	push	r12
     ede:	df 92       	push	r13
     ee0:	ef 92       	push	r14
     ee2:	ff 92       	push	r15
     ee4:	0f 93       	push	r16
     ee6:	1f 93       	push	r17
     ee8:	cf 93       	push	r28
     eea:	df 93       	push	r29
     eec:	cd b7       	in	r28, 0x3d	; 61
     eee:	de b7       	in	r29, 0x3e	; 62
     ef0:	a4 97       	sbiw	r28, 0x24	; 36
     ef2:	0f b6       	in	r0, 0x3f	; 63
     ef4:	f8 94       	cli
     ef6:	de bf       	out	0x3e, r29	; 62
     ef8:	0f be       	out	0x3f, r0	; 63
     efa:	cd bf       	out	0x3d, r28	; 61
     efc:	08 2f       	mov	r16, r24
     efe:	90 91 4e 03 	lds	r25, 0x034E	; 0x80034e <_ZN3Lcd6cursorE>
     f02:	1c e0       	ldi	r17, 0x0C	; 12
     f04:	91 9f       	mul	r25, r17
     f06:	10 2d       	mov	r17, r0
     f08:	11 24       	eor	r1, r1
     f0a:	90 91 50 03 	lds	r25, 0x0350	; 0x800350 <_ZN3Lcd6cursorE+0x2>
     f0e:	99 0f       	add	r25, r25
     f10:	99 0f       	add	r25, r25
     f12:	99 0f       	add	r25, r25
     f14:	f8 94       	cli
     f16:	19 82       	std	Y+1, r1	; 0x01
     f18:	9a 83       	std	Y+2, r25	; 0x02
     f1a:	1b 82       	std	Y+3, r1	; 0x03
     f1c:	99 5f       	subi	r25, 0xF9	; 249
     f1e:	9c 83       	std	Y+4, r25	; 0x04
     f20:	8a e2       	ldi	r24, 0x2A	; 42
     f22:	72 df       	rcall	.-284    	; 0xe08 <_ZN3Lcd7sendCmdEh>
     f24:	64 e0       	ldi	r22, 0x04	; 4
     f26:	ce 01       	movw	r24, r28
     f28:	01 96       	adiw	r24, 0x01	; 1
     f2a:	7f df       	rcall	.-258    	; 0xe2a <_ZN3Lcd8sendDataEPhh>
     f2c:	a7 df       	rcall	.-178    	; 0xe7c <_ZN3Lcd8cmpltCmdEv>
     f2e:	19 82       	std	Y+1, r1	; 0x01
     f30:	1a 83       	std	Y+2, r17	; 0x02
     f32:	1b 82       	std	Y+3, r1	; 0x03
     f34:	15 5f       	subi	r17, 0xF5	; 245
     f36:	1c 83       	std	Y+4, r17	; 0x04
     f38:	8b e2       	ldi	r24, 0x2B	; 43
     f3a:	66 df       	rcall	.-308    	; 0xe08 <_ZN3Lcd7sendCmdEh>
     f3c:	64 e0       	ldi	r22, 0x04	; 4
     f3e:	ce 01       	movw	r24, r28
     f40:	01 96       	adiw	r24, 0x01	; 1
     f42:	73 df       	rcall	.-282    	; 0xe2a <_ZN3Lcd8sendDataEPhh>
     f44:	9b df       	rcall	.-202    	; 0xe7c <_ZN3Lcd8cmpltCmdEv>
     f46:	be 01       	movw	r22, r28
     f48:	67 5e       	subi	r22, 0xE7	; 231
     f4a:	7f 4f       	sbci	r23, 0xFF	; 255
     f4c:	80 2f       	mov	r24, r16
     f4e:	aa db       	rcall	.-2220   	; 0x6a4 <_getPixels>
     f50:	8c e2       	ldi	r24, 0x2C	; 44
     f52:	5a df       	rcall	.-332    	; 0xe08 <_ZN3Lcd7sendCmdEh>
     f54:	8e 01       	movw	r16, r28
     f56:	07 5e       	subi	r16, 0xE7	; 231
     f58:	1f 4f       	sbci	r17, 0xFF	; 255
     f5a:	7e 01       	movw	r14, r28
     f5c:	25 e2       	ldi	r18, 0x25	; 37
     f5e:	e2 0e       	add	r14, r18
     f60:	f1 1c       	adc	r15, r1
     f62:	d8 01       	movw	r26, r16
     f64:	9d 91       	ld	r25, X+
     f66:	8d 01       	movw	r16, r26
     f68:	40 91 55 03 	lds	r20, 0x0355	; 0x800355 <_ZN3Lcd7fgColorE>
     f6c:	50 91 56 03 	lds	r21, 0x0356	; 0x800356 <_ZN3Lcd7fgColorE+0x1>
     f70:	60 91 57 03 	lds	r22, 0x0357	; 0x800357 <_ZN3Lcd7fgColorE+0x2>
     f74:	70 91 52 03 	lds	r23, 0x0352	; 0x800352 <_ZN3Lcd7bgColorE>
     f78:	d0 90 53 03 	lds	r13, 0x0353	; 0x800353 <_ZN3Lcd7bgColorE+0x1>
     f7c:	c0 90 54 03 	lds	r12, 0x0354	; 0x800354 <_ZN3Lcd7bgColorE+0x2>
     f80:	fe 01       	movw	r30, r28
     f82:	31 96       	adiw	r30, 0x01	; 1
     f84:	5f 01       	movw	r10, r30
     f86:	32 96       	adiw	r30, 0x02	; 2
     f88:	83 e0       	ldi	r24, 0x03	; 3
     f8a:	9f 01       	movw	r18, r30
     f8c:	21 50       	subi	r18, 0x01	; 1
     f8e:	31 09       	sbc	r19, r1
     f90:	d5 01       	movw	r26, r10
     f92:	90 ff       	sbrs	r25, 0
     f94:	05 c0       	rjmp	.+10     	; 0xfa0 <_ZN3Lcd11lcd_putcharEc+0xc8>
     f96:	4c 93       	st	X, r20
     f98:	d9 01       	movw	r26, r18
     f9a:	5c 93       	st	X, r21
     f9c:	60 83       	st	Z, r22
     f9e:	04 c0       	rjmp	.+8      	; 0xfa8 <_ZN3Lcd11lcd_putcharEc+0xd0>
     fa0:	7c 93       	st	X, r23
     fa2:	d9 01       	movw	r26, r18
     fa4:	dc 92       	st	X, r13
     fa6:	c0 82       	st	Z, r12
     fa8:	96 95       	lsr	r25
     faa:	8d 5f       	subi	r24, 0xFD	; 253
     fac:	b3 e0       	ldi	r27, 0x03	; 3
     fae:	ab 0e       	add	r10, r27
     fb0:	b1 1c       	adc	r11, r1
     fb2:	33 96       	adiw	r30, 0x03	; 3
     fb4:	8b 31       	cpi	r24, 0x1B	; 27
     fb6:	49 f7       	brne	.-46     	; 0xf8a <_ZN3Lcd11lcd_putcharEc+0xb2>
     fb8:	68 e1       	ldi	r22, 0x18	; 24
     fba:	ce 01       	movw	r24, r28
     fbc:	01 96       	adiw	r24, 0x01	; 1
     fbe:	35 df       	rcall	.-406    	; 0xe2a <_ZN3Lcd8sendDataEPhh>
     fc0:	0e 15       	cp	r16, r14
     fc2:	1f 05       	cpc	r17, r15
     fc4:	71 f6       	brne	.-100    	; 0xf62 <_ZN3Lcd11lcd_putcharEc+0x8a>
     fc6:	5a df       	rcall	.-332    	; 0xe7c <_ZN3Lcd8cmpltCmdEv>
     fc8:	80 91 50 03 	lds	r24, 0x0350	; 0x800350 <_ZN3Lcd6cursorE+0x2>
     fcc:	90 91 51 03 	lds	r25, 0x0351	; 0x800351 <_ZN3Lcd6cursorE+0x3>
     fd0:	01 96       	adiw	r24, 0x01	; 1
     fd2:	84 31       	cpi	r24, 0x14	; 20
     fd4:	91 05       	cpc	r25, r1
     fd6:	29 f0       	breq	.+10     	; 0xfe2 <_ZN3Lcd11lcd_putcharEc+0x10a>
     fd8:	90 93 51 03 	sts	0x0351, r25	; 0x800351 <_ZN3Lcd6cursorE+0x3>
     fdc:	80 93 50 03 	sts	0x0350, r24	; 0x800350 <_ZN3Lcd6cursorE+0x2>
     fe0:	15 c0       	rjmp	.+42     	; 0x100c <_ZN3Lcd11lcd_putcharEc+0x134>
     fe2:	10 92 51 03 	sts	0x0351, r1	; 0x800351 <_ZN3Lcd6cursorE+0x3>
     fe6:	10 92 50 03 	sts	0x0350, r1	; 0x800350 <_ZN3Lcd6cursorE+0x2>
     fea:	80 91 4e 03 	lds	r24, 0x034E	; 0x80034e <_ZN3Lcd6cursorE>
     fee:	90 91 4f 03 	lds	r25, 0x034F	; 0x80034f <_ZN3Lcd6cursorE+0x1>
     ff2:	01 96       	adiw	r24, 0x01	; 1
     ff4:	8a 30       	cpi	r24, 0x0A	; 10
     ff6:	91 05       	cpc	r25, r1
     ff8:	29 f0       	breq	.+10     	; 0x1004 <_ZN3Lcd11lcd_putcharEc+0x12c>
     ffa:	90 93 4f 03 	sts	0x034F, r25	; 0x80034f <_ZN3Lcd6cursorE+0x1>
     ffe:	80 93 4e 03 	sts	0x034E, r24	; 0x80034e <_ZN3Lcd6cursorE>
    1002:	04 c0       	rjmp	.+8      	; 0x100c <_ZN3Lcd11lcd_putcharEc+0x134>
    1004:	10 92 4f 03 	sts	0x034F, r1	; 0x80034f <_ZN3Lcd6cursorE+0x1>
    1008:	10 92 4e 03 	sts	0x034E, r1	; 0x80034e <_ZN3Lcd6cursorE>
    100c:	78 94       	sei
    100e:	a4 96       	adiw	r28, 0x24	; 36
    1010:	0f b6       	in	r0, 0x3f	; 63
    1012:	f8 94       	cli
    1014:	de bf       	out	0x3e, r29	; 62
    1016:	0f be       	out	0x3f, r0	; 63
    1018:	cd bf       	out	0x3d, r28	; 61
    101a:	df 91       	pop	r29
    101c:	cf 91       	pop	r28
    101e:	1f 91       	pop	r17
    1020:	0f 91       	pop	r16
    1022:	ff 90       	pop	r15
    1024:	ef 90       	pop	r14
    1026:	df 90       	pop	r13
    1028:	cf 90       	pop	r12
    102a:	bf 90       	pop	r11
    102c:	af 90       	pop	r10
    102e:	08 95       	ret

00001030 <_ZN3Lcd8drawCharEchhh9_pixColorS0_>:
    1030:	6f 92       	push	r6
    1032:	7f 92       	push	r7
    1034:	8f 92       	push	r8
    1036:	9f 92       	push	r9
    1038:	af 92       	push	r10
    103a:	cf 92       	push	r12
    103c:	df 92       	push	r13
    103e:	ef 92       	push	r14
    1040:	ff 92       	push	r15
    1042:	0f 93       	push	r16
    1044:	1f 93       	push	r17
    1046:	cf 93       	push	r28
    1048:	df 93       	push	r29
    104a:	cd b7       	in	r28, 0x3d	; 61
    104c:	de b7       	in	r29, 0x3e	; 62
    104e:	a5 97       	sbiw	r28, 0x25	; 37
    1050:	0f b6       	in	r0, 0x3f	; 63
    1052:	f8 94       	cli
    1054:	de bf       	out	0x3e, r29	; 62
    1056:	0f be       	out	0x3f, r0	; 63
    1058:	cd bf       	out	0x3d, r28	; 61
    105a:	16 2f       	mov	r17, r22
    105c:	f4 2e       	mov	r15, r20
    105e:	44 23       	and	r20, r20
    1060:	59 f0       	breq	.+22     	; 0x1078 <_ZN3Lcd8drawCharEchhh9_pixColorS0_+0x48>
    1062:	90 91 4e 03 	lds	r25, 0x034E	; 0x80034e <_ZN3Lcd6cursorE>
    1066:	2c e0       	ldi	r18, 0x0C	; 12
    1068:	92 9f       	mul	r25, r18
    106a:	20 2d       	mov	r18, r0
    106c:	11 24       	eor	r1, r1
    106e:	00 91 50 03 	lds	r16, 0x0350	; 0x800350 <_ZN3Lcd6cursorE+0x2>
    1072:	00 0f       	add	r16, r16
    1074:	00 0f       	add	r16, r16
    1076:	00 0f       	add	r16, r16
    1078:	f8 94       	cli
    107a:	19 82       	std	Y+1, r1	; 0x01
    107c:	0a 83       	std	Y+2, r16	; 0x02
    107e:	1b 82       	std	Y+3, r1	; 0x03
    1080:	09 5f       	subi	r16, 0xF9	; 249
    1082:	0c 83       	std	Y+4, r16	; 0x04
    1084:	8a e2       	ldi	r24, 0x2A	; 42
    1086:	2d a3       	std	Y+37, r18	; 0x25
    1088:	bf de       	rcall	.-642    	; 0xe08 <_ZN3Lcd7sendCmdEh>
    108a:	64 e0       	ldi	r22, 0x04	; 4
    108c:	ce 01       	movw	r24, r28
    108e:	01 96       	adiw	r24, 0x01	; 1
    1090:	cc de       	rcall	.-616    	; 0xe2a <_ZN3Lcd8sendDataEPhh>
    1092:	f4 de       	rcall	.-536    	; 0xe7c <_ZN3Lcd8cmpltCmdEv>
    1094:	19 82       	std	Y+1, r1	; 0x01
    1096:	2d a1       	ldd	r18, Y+37	; 0x25
    1098:	2a 83       	std	Y+2, r18	; 0x02
    109a:	1b 82       	std	Y+3, r1	; 0x03
    109c:	25 5f       	subi	r18, 0xF5	; 245
    109e:	2c 83       	std	Y+4, r18	; 0x04
    10a0:	8b e2       	ldi	r24, 0x2B	; 43
    10a2:	b2 de       	rcall	.-668    	; 0xe08 <_ZN3Lcd7sendCmdEh>
    10a4:	64 e0       	ldi	r22, 0x04	; 4
    10a6:	ce 01       	movw	r24, r28
    10a8:	01 96       	adiw	r24, 0x01	; 1
    10aa:	bf de       	rcall	.-642    	; 0xe2a <_ZN3Lcd8sendDataEPhh>
    10ac:	e7 de       	rcall	.-562    	; 0xe7c <_ZN3Lcd8cmpltCmdEv>
    10ae:	be 01       	movw	r22, r28
    10b0:	67 5e       	subi	r22, 0xE7	; 231
    10b2:	7f 4f       	sbci	r23, 0xFF	; 255
    10b4:	81 2f       	mov	r24, r17
    10b6:	f6 da       	rcall	.-2580   	; 0x6a4 <_getPixels>
    10b8:	8c e2       	ldi	r24, 0x2C	; 44
    10ba:	a6 de       	rcall	.-692    	; 0xe08 <_ZN3Lcd7sendCmdEh>
    10bc:	8e 01       	movw	r16, r28
    10be:	07 5e       	subi	r16, 0xE7	; 231
    10c0:	1f 4f       	sbci	r17, 0xFF	; 255
    10c2:	3e 01       	movw	r6, r28
    10c4:	85 e2       	ldi	r24, 0x25	; 37
    10c6:	68 0e       	add	r6, r24
    10c8:	71 1c       	adc	r7, r1
    10ca:	d8 01       	movw	r26, r16
    10cc:	3d 91       	ld	r19, X+
    10ce:	8d 01       	movw	r16, r26
    10d0:	ae 01       	movw	r20, r28
    10d2:	4f 5f       	subi	r20, 0xFF	; 255
    10d4:	5f 4f       	sbci	r21, 0xFF	; 255
    10d6:	fe 01       	movw	r30, r28
    10d8:	33 96       	adiw	r30, 0x03	; 3
    10da:	23 e0       	ldi	r18, 0x03	; 3
    10dc:	cf 01       	movw	r24, r30
    10de:	01 97       	sbiw	r24, 0x01	; 1
    10e0:	da 01       	movw	r26, r20
    10e2:	30 ff       	sbrs	r19, 0
    10e4:	05 c0       	rjmp	.+10     	; 0x10f0 <_ZN3Lcd8drawCharEchhh9_pixColorS0_+0xc0>
    10e6:	cc 92       	st	X, r12
    10e8:	dc 01       	movw	r26, r24
    10ea:	dc 92       	st	X, r13
    10ec:	e0 82       	st	Z, r14
    10ee:	04 c0       	rjmp	.+8      	; 0x10f8 <_ZN3Lcd8drawCharEchhh9_pixColorS0_+0xc8>
    10f0:	8c 92       	st	X, r8
    10f2:	dc 01       	movw	r26, r24
    10f4:	9c 92       	st	X, r9
    10f6:	a0 82       	st	Z, r10
    10f8:	36 95       	lsr	r19
    10fa:	2d 5f       	subi	r18, 0xFD	; 253
    10fc:	4d 5f       	subi	r20, 0xFD	; 253
    10fe:	5f 4f       	sbci	r21, 0xFF	; 255
    1100:	33 96       	adiw	r30, 0x03	; 3
    1102:	2b 31       	cpi	r18, 0x1B	; 27
    1104:	59 f7       	brne	.-42     	; 0x10dc <_ZN3Lcd8drawCharEchhh9_pixColorS0_+0xac>
    1106:	68 e1       	ldi	r22, 0x18	; 24
    1108:	ce 01       	movw	r24, r28
    110a:	01 96       	adiw	r24, 0x01	; 1
    110c:	8e de       	rcall	.-740    	; 0xe2a <_ZN3Lcd8sendDataEPhh>
    110e:	06 15       	cp	r16, r6
    1110:	17 05       	cpc	r17, r7
    1112:	d9 f6       	brne	.-74     	; 0x10ca <_ZN3Lcd8drawCharEchhh9_pixColorS0_+0x9a>
    1114:	b3 de       	rcall	.-666    	; 0xe7c <_ZN3Lcd8cmpltCmdEv>
    1116:	ff 20       	and	r15, r15
    1118:	11 f1       	breq	.+68     	; 0x115e <_ZN3Lcd8drawCharEchhh9_pixColorS0_+0x12e>
    111a:	80 91 50 03 	lds	r24, 0x0350	; 0x800350 <_ZN3Lcd6cursorE+0x2>
    111e:	90 91 51 03 	lds	r25, 0x0351	; 0x800351 <_ZN3Lcd6cursorE+0x3>
    1122:	01 96       	adiw	r24, 0x01	; 1
    1124:	84 31       	cpi	r24, 0x14	; 20
    1126:	91 05       	cpc	r25, r1
    1128:	29 f0       	breq	.+10     	; 0x1134 <_ZN3Lcd8drawCharEchhh9_pixColorS0_+0x104>
    112a:	90 93 51 03 	sts	0x0351, r25	; 0x800351 <_ZN3Lcd6cursorE+0x3>
    112e:	80 93 50 03 	sts	0x0350, r24	; 0x800350 <_ZN3Lcd6cursorE+0x2>
    1132:	15 c0       	rjmp	.+42     	; 0x115e <_ZN3Lcd8drawCharEchhh9_pixColorS0_+0x12e>
    1134:	10 92 51 03 	sts	0x0351, r1	; 0x800351 <_ZN3Lcd6cursorE+0x3>
    1138:	10 92 50 03 	sts	0x0350, r1	; 0x800350 <_ZN3Lcd6cursorE+0x2>
    113c:	80 91 4e 03 	lds	r24, 0x034E	; 0x80034e <_ZN3Lcd6cursorE>
    1140:	90 91 4f 03 	lds	r25, 0x034F	; 0x80034f <_ZN3Lcd6cursorE+0x1>
    1144:	01 96       	adiw	r24, 0x01	; 1
    1146:	8a 30       	cpi	r24, 0x0A	; 10
    1148:	91 05       	cpc	r25, r1
    114a:	29 f0       	breq	.+10     	; 0x1156 <_ZN3Lcd8drawCharEchhh9_pixColorS0_+0x126>
    114c:	90 93 4f 03 	sts	0x034F, r25	; 0x80034f <_ZN3Lcd6cursorE+0x1>
    1150:	80 93 4e 03 	sts	0x034E, r24	; 0x80034e <_ZN3Lcd6cursorE>
    1154:	04 c0       	rjmp	.+8      	; 0x115e <_ZN3Lcd8drawCharEchhh9_pixColorS0_+0x12e>
    1156:	10 92 4f 03 	sts	0x034F, r1	; 0x80034f <_ZN3Lcd6cursorE+0x1>
    115a:	10 92 4e 03 	sts	0x034E, r1	; 0x80034e <_ZN3Lcd6cursorE>
    115e:	78 94       	sei
    1160:	a5 96       	adiw	r28, 0x25	; 37
    1162:	0f b6       	in	r0, 0x3f	; 63
    1164:	f8 94       	cli
    1166:	de bf       	out	0x3e, r29	; 62
    1168:	0f be       	out	0x3f, r0	; 63
    116a:	cd bf       	out	0x3d, r28	; 61
    116c:	df 91       	pop	r29
    116e:	cf 91       	pop	r28
    1170:	1f 91       	pop	r17
    1172:	0f 91       	pop	r16
    1174:	ff 90       	pop	r15
    1176:	ef 90       	pop	r14
    1178:	df 90       	pop	r13
    117a:	cf 90       	pop	r12
    117c:	af 90       	pop	r10
    117e:	9f 90       	pop	r9
    1180:	8f 90       	pop	r8
    1182:	7f 90       	pop	r7
    1184:	6f 90       	pop	r6
    1186:	08 95       	ret

00001188 <_ZN3Lcd8drawCharEchhh>:
    1188:	8f 92       	push	r8
    118a:	9f 92       	push	r9
    118c:	af 92       	push	r10
    118e:	cf 92       	push	r12
    1190:	df 92       	push	r13
    1192:	ef 92       	push	r14
    1194:	0f 93       	push	r16
    1196:	80 90 52 03 	lds	r8, 0x0352	; 0x800352 <_ZN3Lcd7bgColorE>
    119a:	90 90 53 03 	lds	r9, 0x0353	; 0x800353 <_ZN3Lcd7bgColorE+0x1>
    119e:	a0 90 54 03 	lds	r10, 0x0354	; 0x800354 <_ZN3Lcd7bgColorE+0x2>
    11a2:	c0 90 55 03 	lds	r12, 0x0355	; 0x800355 <_ZN3Lcd7fgColorE>
    11a6:	d0 90 56 03 	lds	r13, 0x0356	; 0x800356 <_ZN3Lcd7fgColorE+0x1>
    11aa:	e0 90 57 03 	lds	r14, 0x0357	; 0x800357 <_ZN3Lcd7fgColorE+0x2>
    11ae:	40 df       	rcall	.-384    	; 0x1030 <_ZN3Lcd8drawCharEchhh9_pixColorS0_>
    11b0:	0f 91       	pop	r16
    11b2:	ef 90       	pop	r14
    11b4:	df 90       	pop	r13
    11b6:	cf 90       	pop	r12
    11b8:	af 90       	pop	r10
    11ba:	9f 90       	pop	r9
    11bc:	8f 90       	pop	r8
    11be:	08 95       	ret

000011c0 <_ZN3Lcd7clrScrnEv>:
    11c0:	6f 92       	push	r6
    11c2:	7f 92       	push	r7
    11c4:	8f 92       	push	r8
    11c6:	ef 92       	push	r14
    11c8:	ff 92       	push	r15
    11ca:	0f 93       	push	r16
    11cc:	1f 93       	push	r17
    11ce:	cf 93       	push	r28
    11d0:	df 93       	push	r29
    11d2:	cd b7       	in	r28, 0x3d	; 61
    11d4:	de b7       	in	r29, 0x3e	; 62
    11d6:	27 97       	sbiw	r28, 0x07	; 7
    11d8:	0f b6       	in	r0, 0x3f	; 63
    11da:	f8 94       	cli
    11dc:	de bf       	out	0x3e, r29	; 62
    11de:	0f be       	out	0x3f, r0	; 63
    11e0:	cd bf       	out	0x3d, r28	; 61
    11e2:	60 90 52 03 	lds	r6, 0x0352	; 0x800352 <_ZN3Lcd7bgColorE>
    11e6:	70 90 53 03 	lds	r7, 0x0353	; 0x800353 <_ZN3Lcd7bgColorE+0x1>
    11ea:	80 90 54 03 	lds	r8, 0x0354	; 0x800354 <_ZN3Lcd7bgColorE+0x2>
    11ee:	10 92 52 03 	sts	0x0352, r1	; 0x800352 <_ZN3Lcd7bgColorE>
    11f2:	10 92 53 03 	sts	0x0353, r1	; 0x800353 <_ZN3Lcd7bgColorE+0x1>
    11f6:	8c e4       	ldi	r24, 0x4C	; 76
    11f8:	80 93 54 03 	sts	0x0354, r24	; 0x800354 <_ZN3Lcd7bgColorE+0x2>
    11fc:	f8 94       	cli
    11fe:	19 82       	std	Y+1, r1	; 0x01
    1200:	1a 82       	std	Y+2, r1	; 0x02
    1202:	1b 82       	std	Y+3, r1	; 0x03
    1204:	80 ea       	ldi	r24, 0xA0	; 160
    1206:	8c 83       	std	Y+4, r24	; 0x04
    1208:	8a e2       	ldi	r24, 0x2A	; 42
    120a:	fe dd       	rcall	.-1028   	; 0xe08 <_ZN3Lcd7sendCmdEh>
    120c:	64 e0       	ldi	r22, 0x04	; 4
    120e:	ce 01       	movw	r24, r28
    1210:	01 96       	adiw	r24, 0x01	; 1
    1212:	0b de       	rcall	.-1002   	; 0xe2a <_ZN3Lcd8sendDataEPhh>
    1214:	33 de       	rcall	.-922    	; 0xe7c <_ZN3Lcd8cmpltCmdEv>
    1216:	19 82       	std	Y+1, r1	; 0x01
    1218:	1a 82       	std	Y+2, r1	; 0x02
    121a:	1b 82       	std	Y+3, r1	; 0x03
    121c:	80 e8       	ldi	r24, 0x80	; 128
    121e:	8c 83       	std	Y+4, r24	; 0x04
    1220:	8b e2       	ldi	r24, 0x2B	; 43
    1222:	f2 dd       	rcall	.-1052   	; 0xe08 <_ZN3Lcd7sendCmdEh>
    1224:	64 e0       	ldi	r22, 0x04	; 4
    1226:	ce 01       	movw	r24, r28
    1228:	01 96       	adiw	r24, 0x01	; 1
    122a:	ff dd       	rcall	.-1026   	; 0xe2a <_ZN3Lcd8sendDataEPhh>
    122c:	27 de       	rcall	.-946    	; 0xe7c <_ZN3Lcd8cmpltCmdEv>
    122e:	80 91 52 03 	lds	r24, 0x0352	; 0x800352 <_ZN3Lcd7bgColorE>
    1232:	8d 83       	std	Y+5, r24	; 0x05
    1234:	80 91 53 03 	lds	r24, 0x0353	; 0x800353 <_ZN3Lcd7bgColorE+0x1>
    1238:	8e 83       	std	Y+6, r24	; 0x06
    123a:	80 91 54 03 	lds	r24, 0x0354	; 0x800354 <_ZN3Lcd7bgColorE+0x2>
    123e:	8f 83       	std	Y+7, r24	; 0x07
    1240:	8c e2       	ldi	r24, 0x2C	; 44
    1242:	e2 dd       	rcall	.-1084   	; 0xe08 <_ZN3Lcd7sendCmdEh>
    1244:	80 e8       	ldi	r24, 0x80	; 128
    1246:	e8 2e       	mov	r14, r24
    1248:	f1 2c       	mov	r15, r1
    124a:	00 ea       	ldi	r16, 0xA0	; 160
    124c:	10 e0       	ldi	r17, 0x00	; 0
    124e:	63 e0       	ldi	r22, 0x03	; 3
    1250:	ce 01       	movw	r24, r28
    1252:	05 96       	adiw	r24, 0x05	; 5
    1254:	ea dd       	rcall	.-1068   	; 0xe2a <_ZN3Lcd8sendDataEPhh>
    1256:	01 50       	subi	r16, 0x01	; 1
    1258:	11 09       	sbc	r17, r1
    125a:	c9 f7       	brne	.-14     	; 0x124e <_ZN3Lcd7clrScrnEv+0x8e>
    125c:	81 e0       	ldi	r24, 0x01	; 1
    125e:	e8 1a       	sub	r14, r24
    1260:	f1 08       	sbc	r15, r1
    1262:	99 f7       	brne	.-26     	; 0x124a <_ZN3Lcd7clrScrnEv+0x8a>
    1264:	78 94       	sei
    1266:	10 92 4f 03 	sts	0x034F, r1	; 0x80034f <_ZN3Lcd6cursorE+0x1>
    126a:	10 92 4e 03 	sts	0x034E, r1	; 0x80034e <_ZN3Lcd6cursorE>
    126e:	10 92 51 03 	sts	0x0351, r1	; 0x800351 <_ZN3Lcd6cursorE+0x3>
    1272:	10 92 50 03 	sts	0x0350, r1	; 0x800350 <_ZN3Lcd6cursorE+0x2>
    1276:	60 92 52 03 	sts	0x0352, r6	; 0x800352 <_ZN3Lcd7bgColorE>
    127a:	70 92 53 03 	sts	0x0353, r7	; 0x800353 <_ZN3Lcd7bgColorE+0x1>
    127e:	80 92 54 03 	sts	0x0354, r8	; 0x800354 <_ZN3Lcd7bgColorE+0x2>
    1282:	27 96       	adiw	r28, 0x07	; 7
    1284:	0f b6       	in	r0, 0x3f	; 63
    1286:	f8 94       	cli
    1288:	de bf       	out	0x3e, r29	; 62
    128a:	0f be       	out	0x3f, r0	; 63
    128c:	cd bf       	out	0x3d, r28	; 61
    128e:	df 91       	pop	r29
    1290:	cf 91       	pop	r28
    1292:	1f 91       	pop	r17
    1294:	0f 91       	pop	r16
    1296:	ff 90       	pop	r15
    1298:	ef 90       	pop	r14
    129a:	8f 90       	pop	r8
    129c:	7f 90       	pop	r7
    129e:	6f 90       	pop	r6
    12a0:	08 95       	ret

000012a2 <_ZN3LcdC1Ev>:
    12a2:	0f 93       	push	r16
    12a4:	1f 93       	push	r17
    12a6:	cf 93       	push	r28
    12a8:	df 93       	push	r29
    12aa:	1f 92       	push	r1
    12ac:	cd b7       	in	r28, 0x3d	; 61
    12ae:	de b7       	in	r29, 0x3e	; 62
    12b0:	20 91 4d 03 	lds	r18, 0x034D	; 0x80034d <_ZN3Lcd14lcdInitializedE>
    12b4:	21 11       	cpse	r18, r1
    12b6:	3f c0       	rjmp	.+126    	; 0x1336 <_ZN3LcdC1Ev+0x94>
    12b8:	8c 01       	movw	r16, r24
    12ba:	8a b1       	in	r24, 0x0a	; 10
    12bc:	89 83       	std	Y+1, r24	; 0x01
    12be:	89 81       	ldd	r24, Y+1	; 0x01
    12c0:	8c 67       	ori	r24, 0x7C	; 124
    12c2:	89 83       	std	Y+1, r24	; 0x01
    12c4:	89 81       	ldd	r24, Y+1	; 0x01
    12c6:	8a b9       	out	0x0a, r24	; 10
    12c8:	8b b1       	in	r24, 0x0b	; 11
    12ca:	89 83       	std	Y+1, r24	; 0x01
    12cc:	89 81       	ldd	r24, Y+1	; 0x01
    12ce:	83 78       	andi	r24, 0x83	; 131
    12d0:	89 83       	std	Y+1, r24	; 0x01
    12d2:	89 81       	ldd	r24, Y+1	; 0x01
    12d4:	80 66       	ori	r24, 0x60	; 96
    12d6:	89 83       	std	Y+1, r24	; 0x01
    12d8:	89 81       	ldd	r24, Y+1	; 0x01
    12da:	8b b9       	out	0x0b, r24	; 11
    12dc:	8c ef       	ldi	r24, 0xFC	; 252
    12de:	80 93 55 03 	sts	0x0355, r24	; 0x800355 <_ZN3Lcd7fgColorE>
    12e2:	80 93 56 03 	sts	0x0356, r24	; 0x800356 <_ZN3Lcd7fgColorE+0x1>
    12e6:	80 93 57 03 	sts	0x0357, r24	; 0x800357 <_ZN3Lcd7fgColorE+0x2>
    12ea:	10 92 52 03 	sts	0x0352, r1	; 0x800352 <_ZN3Lcd7bgColorE>
    12ee:	10 92 53 03 	sts	0x0353, r1	; 0x800353 <_ZN3Lcd7bgColorE+0x1>
    12f2:	8c e4       	ldi	r24, 0x4C	; 76
    12f4:	80 93 54 03 	sts	0x0354, r24	; 0x800354 <_ZN3Lcd7bgColorE+0x2>
    12f8:	10 92 51 03 	sts	0x0351, r1	; 0x800351 <_ZN3Lcd6cursorE+0x3>
    12fc:	10 92 50 03 	sts	0x0350, r1	; 0x800350 <_ZN3Lcd6cursorE+0x2>
    1300:	10 92 4f 03 	sts	0x034F, r1	; 0x80034f <_ZN3Lcd6cursorE+0x1>
    1304:	10 92 4e 03 	sts	0x034E, r1	; 0x80034e <_ZN3Lcd6cursorE>
    1308:	c8 01       	movw	r24, r16
    130a:	3d dd       	rcall	.-1414   	; 0xd86 <_ZN3Lcd5resetEv>
    130c:	c8 01       	movw	r24, r16
    130e:	c7 dd       	rcall	.-1138   	; 0xe9e <_ZN3Lcd10mem_accessEv>
    1310:	6c e0       	ldi	r22, 0x0C	; 12
    1312:	70 e0       	ldi	r23, 0x00	; 0
    1314:	80 e0       	ldi	r24, 0x00	; 0
    1316:	90 e0       	ldi	r25, 0x00	; 0
    1318:	87 db       	rcall	.-2290   	; 0xa28 <_ZN5Clock5delayEm>
    131a:	c8 01       	movw	r24, r16
    131c:	ba dd       	rcall	.-1164   	; 0xe92 <_ZN3Lcd9sleep_outEv>
    131e:	6c e0       	ldi	r22, 0x0C	; 12
    1320:	70 e0       	ldi	r23, 0x00	; 0
    1322:	80 e0       	ldi	r24, 0x00	; 0
    1324:	90 e0       	ldi	r25, 0x00	; 0
    1326:	80 db       	rcall	.-2304   	; 0xa28 <_ZN5Clock5delayEm>
    1328:	c8 01       	movw	r24, r16
    132a:	ad dd       	rcall	.-1190   	; 0xe86 <_ZN3Lcd2onEv>
    132c:	c8 01       	movw	r24, r16
    132e:	48 df       	rcall	.-368    	; 0x11c0 <_ZN3Lcd7clrScrnEv>
    1330:	81 e0       	ldi	r24, 0x01	; 1
    1332:	80 93 4d 03 	sts	0x034D, r24	; 0x80034d <_ZN3Lcd14lcdInitializedE>
    1336:	0f 90       	pop	r0
    1338:	df 91       	pop	r29
    133a:	cf 91       	pop	r28
    133c:	1f 91       	pop	r17
    133e:	0f 91       	pop	r16
    1340:	08 95       	ret

00001342 <_ZN3Lcd4putsEPKc>:
    1342:	ef 92       	push	r14
    1344:	ff 92       	push	r15
    1346:	0f 93       	push	r16
    1348:	cf 93       	push	r28
    134a:	df 93       	push	r29
    134c:	7c 01       	movw	r14, r24
    134e:	eb 01       	movw	r28, r22
    1350:	69 91       	ld	r22, Y+
    1352:	66 23       	and	r22, r22
    1354:	41 f0       	breq	.+16     	; 0x1366 <_ZN3Lcd4putsEPKc+0x24>
    1356:	00 91 50 03 	lds	r16, 0x0350	; 0x800350 <_ZN3Lcd6cursorE+0x2>
    135a:	20 91 4e 03 	lds	r18, 0x034E	; 0x80034e <_ZN3Lcd6cursorE>
    135e:	41 e0       	ldi	r20, 0x01	; 1
    1360:	c7 01       	movw	r24, r14
    1362:	12 df       	rcall	.-476    	; 0x1188 <_ZN3Lcd8drawCharEchhh>
    1364:	f5 cf       	rjmp	.-22     	; 0x1350 <_ZN3Lcd4putsEPKc+0xe>
    1366:	df 91       	pop	r29
    1368:	cf 91       	pop	r28
    136a:	0f 91       	pop	r16
    136c:	ff 90       	pop	r15
    136e:	ef 90       	pop	r14
    1370:	08 95       	ret

00001372 <_ZN3Lcd4putsEPKc9_pixColorS2_>:
    1372:	2f 92       	push	r2
    1374:	3f 92       	push	r3
    1376:	4f 92       	push	r4
    1378:	6f 92       	push	r6
    137a:	7f 92       	push	r7
    137c:	8f 92       	push	r8
    137e:	9f 92       	push	r9
    1380:	af 92       	push	r10
    1382:	cf 92       	push	r12
    1384:	df 92       	push	r13
    1386:	ef 92       	push	r14
    1388:	ff 92       	push	r15
    138a:	0f 93       	push	r16
    138c:	cf 93       	push	r28
    138e:	df 93       	push	r29
    1390:	00 d0       	rcall	.+0      	; 0x1392 <_ZN3Lcd4putsEPKc9_pixColorS2_+0x20>
    1392:	00 d0       	rcall	.+0      	; 0x1394 <_ZN3Lcd4putsEPKc9_pixColorS2_+0x22>
    1394:	1f 92       	push	r1
    1396:	cd b7       	in	r28, 0x3d	; 61
    1398:	de b7       	in	r29, 0x3e	; 62
    139a:	3c 01       	movw	r6, r24
    139c:	19 01       	movw	r2, r18
    139e:	44 2e       	mov	r4, r20
    13a0:	e9 82       	std	Y+1, r14	; 0x01
    13a2:	fa 82       	std	Y+2, r15	; 0x02
    13a4:	0b 83       	std	Y+3, r16	; 0x03
    13a6:	6c 83       	std	Y+4, r22	; 0x04
    13a8:	7d 83       	std	Y+5, r23	; 0x05
    13aa:	ec 81       	ldd	r30, Y+4	; 0x04
    13ac:	fd 81       	ldd	r31, Y+5	; 0x05
    13ae:	61 91       	ld	r22, Z+
    13b0:	fd 83       	std	Y+5, r31	; 0x05
    13b2:	ec 83       	std	Y+4, r30	; 0x04
    13b4:	66 23       	and	r22, r22
    13b6:	69 f0       	breq	.+26     	; 0x13d2 <_ZN3Lcd4putsEPKc9_pixColorS2_+0x60>
    13b8:	89 80       	ldd	r8, Y+1	; 0x01
    13ba:	9a 80       	ldd	r9, Y+2	; 0x02
    13bc:	ab 80       	ldd	r10, Y+3	; 0x03
    13be:	e4 2c       	mov	r14, r4
    13c0:	61 01       	movw	r12, r2
    13c2:	00 91 50 03 	lds	r16, 0x0350	; 0x800350 <_ZN3Lcd6cursorE+0x2>
    13c6:	20 91 4e 03 	lds	r18, 0x034E	; 0x80034e <_ZN3Lcd6cursorE>
    13ca:	41 e0       	ldi	r20, 0x01	; 1
    13cc:	c3 01       	movw	r24, r6
    13ce:	30 de       	rcall	.-928    	; 0x1030 <_ZN3Lcd8drawCharEchhh9_pixColorS0_>
    13d0:	ec cf       	rjmp	.-40     	; 0x13aa <_ZN3Lcd4putsEPKc9_pixColorS2_+0x38>
    13d2:	0f 90       	pop	r0
    13d4:	0f 90       	pop	r0
    13d6:	0f 90       	pop	r0
    13d8:	0f 90       	pop	r0
    13da:	0f 90       	pop	r0
    13dc:	df 91       	pop	r29
    13de:	cf 91       	pop	r28
    13e0:	0f 91       	pop	r16
    13e2:	ff 90       	pop	r15
    13e4:	ef 90       	pop	r14
    13e6:	df 90       	pop	r13
    13e8:	cf 90       	pop	r12
    13ea:	af 90       	pop	r10
    13ec:	9f 90       	pop	r9
    13ee:	8f 90       	pop	r8
    13f0:	7f 90       	pop	r7
    13f2:	6f 90       	pop	r6
    13f4:	4f 90       	pop	r4
    13f6:	3f 90       	pop	r3
    13f8:	2f 90       	pop	r2
    13fa:	08 95       	ret

000013fc <_ZN3Lcd6gotoxyEhh>:
    13fc:	ee e4       	ldi	r30, 0x4E	; 78
    13fe:	f3 e0       	ldi	r31, 0x03	; 3
    1400:	70 e0       	ldi	r23, 0x00	; 0
    1402:	71 83       	std	Z+1, r23	; 0x01
    1404:	60 83       	st	Z, r22
    1406:	50 e0       	ldi	r21, 0x00	; 0
    1408:	53 83       	std	Z+3, r21	; 0x03
    140a:	42 83       	std	Z+2, r20	; 0x02
    140c:	08 95       	ret

0000140e <_Z8lcd_putccP6__file>:
    140e:	64 dd       	rcall	.-1336   	; 0xed8 <_ZN3Lcd11lcd_putcharEc>
    1410:	80 e0       	ldi	r24, 0x00	; 0
    1412:	90 e0       	ldi	r25, 0x00	; 0
    1414:	08 95       	ret

00001416 <_ZN3LedC1Ev>:
    1416:	2e e3       	ldi	r18, 0x3E	; 62
    1418:	32 e0       	ldi	r19, 0x02	; 2
    141a:	fc 01       	movw	r30, r24
    141c:	31 83       	std	Z+1, r19	; 0x01
    141e:	20 83       	st	Z, r18
    1420:	25 9a       	sbi	0x04, 5	; 4
    1422:	2d 9a       	sbi	0x05, 5	; 5
    1424:	62 e3       	ldi	r22, 0x32	; 50
    1426:	70 e0       	ldi	r23, 0x00	; 0
    1428:	14 cb       	rjmp	.-2520   	; 0xa52 <_ZN5Clock16registerPeriodicEP8Callbackj>

0000142a <_ZN3Led6toggleEv>:
    142a:	cf 93       	push	r28
    142c:	df 93       	push	r29
    142e:	1f 92       	push	r1
    1430:	cd b7       	in	r28, 0x3d	; 61
    1432:	de b7       	in	r29, 0x3e	; 62
    1434:	85 b1       	in	r24, 0x05	; 5
    1436:	89 83       	std	Y+1, r24	; 0x01
    1438:	99 81       	ldd	r25, Y+1	; 0x01
    143a:	80 e2       	ldi	r24, 0x20	; 32
    143c:	89 27       	eor	r24, r25
    143e:	89 83       	std	Y+1, r24	; 0x01
    1440:	89 81       	ldd	r24, Y+1	; 0x01
    1442:	85 b9       	out	0x05, r24	; 5
    1444:	0f 90       	pop	r0
    1446:	df 91       	pop	r29
    1448:	cf 91       	pop	r28
    144a:	08 95       	ret

0000144c <_ZN3Led8callbackEv>:
    144c:	ee cf       	rjmp	.-36     	; 0x142a <_ZN3Led6toggleEv>

0000144e <main>:
    144e:	cf 93       	push	r28
    1450:	df 93       	push	r29
    1452:	cd b7       	in	r28, 0x3d	; 61
    1454:	de b7       	in	r29, 0x3e	; 62
    1456:	aa 97       	sbiw	r28, 0x2a	; 42
    1458:	0f b6       	in	r0, 0x3f	; 63
    145a:	f8 94       	cli
    145c:	de bf       	out	0x3e, r29	; 62
    145e:	0f be       	out	0x3f, r0	; 63
    1460:	cd bf       	out	0x3d, r28	; 61
    1462:	81 e0       	ldi	r24, 0x01	; 1
    1464:	90 e0       	ldi	r25, 0x00	; 0
    1466:	0e 94 68 15 	call	0x2ad0	; 0x2ad0 <malloc>
    146a:	49 db       	rcall	.-2414   	; 0xafe <_ZN5ClockC1Ev>
    146c:	82 e0       	ldi	r24, 0x02	; 2
    146e:	90 e0       	ldi	r25, 0x00	; 0
    1470:	0e 94 68 15 	call	0x2ad0	; 0x2ad0 <malloc>
    1474:	d0 df       	rcall	.-96     	; 0x1416 <_ZN3LedC1Ev>
    1476:	81 e0       	ldi	r24, 0x01	; 1
    1478:	90 e0       	ldi	r25, 0x00	; 0
    147a:	0e 94 68 15 	call	0x2ad0	; 0x2ad0 <malloc>
    147e:	98 a3       	std	Y+32, r25	; 0x20
    1480:	8f 8f       	std	Y+31, r24	; 0x1f
    1482:	0f df       	rcall	.-482    	; 0x12a2 <_ZN3LcdC1Ev>
    1484:	81 e0       	ldi	r24, 0x01	; 1
    1486:	90 e0       	ldi	r25, 0x00	; 0
    1488:	0e 94 68 15 	call	0x2ad0	; 0x2ad0 <malloc>
    148c:	2c 01       	movw	r4, r24
    148e:	09 df       	rcall	.-494    	; 0x12a2 <_ZN3LcdC1Ev>
    1490:	07 d7       	rcall	.+3598   	; 0x22a0 <uart_init>
    1492:	86 e1       	ldi	r24, 0x16	; 22
    1494:	91 e0       	ldi	r25, 0x01	; 1
    1496:	90 93 5d 03 	sts	0x035D, r25	; 0x80035d <__iob+0x1>
    149a:	80 93 5c 03 	sts	0x035C, r24	; 0x80035c <__iob>
    149e:	90 93 5f 03 	sts	0x035F, r25	; 0x80035f <__iob+0x3>
    14a2:	80 93 5e 03 	sts	0x035E, r24	; 0x80035e <__iob+0x2>
    14a6:	90 93 61 03 	sts	0x0361, r25	; 0x800361 <__iob+0x5>
    14aa:	80 93 60 03 	sts	0x0360, r24	; 0x800360 <__iob+0x4>
    14ae:	80 e4       	ldi	r24, 0x40	; 64
    14b0:	92 e0       	ldi	r25, 0x02	; 2
    14b2:	0e 94 c5 16 	call	0x2d8a	; 0x2d8a <puts>
    14b6:	4e db       	rcall	.-2404   	; 0xb54 <DdsInit>
    14b8:	8a b1       	in	r24, 0x0a	; 10
    14ba:	8d 8b       	std	Y+21, r24	; 0x15
    14bc:	8d 89       	ldd	r24, Y+21	; 0x15
    14be:	80 64       	ori	r24, 0x40	; 64
    14c0:	8a b9       	out	0x0a, r24	; 10
    14c2:	8b b1       	in	r24, 0x0b	; 11
    14c4:	8d 8b       	std	Y+21, r24	; 0x15
    14c6:	8d 89       	ldd	r24, Y+21	; 0x15
    14c8:	8f 7b       	andi	r24, 0xBF	; 191
    14ca:	8b b9       	out	0x0b, r24	; 11
    14cc:	8b e0       	ldi	r24, 0x0B	; 11
    14ce:	90 e0       	ldi	r25, 0x00	; 0
    14d0:	0e 94 68 15 	call	0x2ad0	; 0x2ad0 <malloc>
    14d4:	9c a3       	std	Y+36, r25	; 0x24
    14d6:	8b a3       	std	Y+35, r24	; 0x23
    14d8:	48 e2       	ldi	r20, 0x28	; 40
    14da:	61 e0       	ldi	r22, 0x01	; 1
    14dc:	6e d6       	rcall	.+3292   	; 0x21ba <_ZN2SwC1Ehh>
    14de:	8b e0       	ldi	r24, 0x0B	; 11
    14e0:	90 e0       	ldi	r25, 0x00	; 0
    14e2:	0e 94 68 15 	call	0x2ad0	; 0x2ad0 <malloc>
    14e6:	9e a3       	std	Y+38, r25	; 0x26
    14e8:	8d a3       	std	Y+37, r24	; 0x25
    14ea:	48 e2       	ldi	r20, 0x28	; 40
    14ec:	63 e0       	ldi	r22, 0x03	; 3
    14ee:	65 d6       	rcall	.+3274   	; 0x21ba <_ZN2SwC1Ehh>
    14f0:	8b e0       	ldi	r24, 0x0B	; 11
    14f2:	90 e0       	ldi	r25, 0x00	; 0
    14f4:	0e 94 68 15 	call	0x2ad0	; 0x2ad0 <malloc>
    14f8:	99 8f       	std	Y+25, r25	; 0x19
    14fa:	88 8f       	std	Y+24, r24	; 0x18
    14fc:	4b e2       	ldi	r20, 0x2B	; 43
    14fe:	67 e0       	ldi	r22, 0x07	; 7
    1500:	5c d6       	rcall	.+3256   	; 0x21ba <_ZN2SwC1Ehh>
    1502:	8f e0       	ldi	r24, 0x0F	; 15
    1504:	90 e0       	ldi	r25, 0x00	; 0
    1506:	0e 94 68 15 	call	0x2ad0	; 0x2ad0 <malloc>
    150a:	9b 8f       	std	Y+27, r25	; 0x1b
    150c:	8a 8f       	std	Y+26, r24	; 0x1a
    150e:	25 e2       	ldi	r18, 0x25	; 37
    1510:	44 e0       	ldi	r20, 0x04	; 4
    1512:	63 e0       	ldi	r22, 0x03	; 3
    1514:	db d8       	rcall	.-3658   	; 0x6cc <_ZN7EncoderC1Ehhh>
    1516:	8c ea       	ldi	r24, 0xAC	; 172
    1518:	90 e0       	ldi	r25, 0x00	; 0
    151a:	0e 94 68 15 	call	0x2ad0	; 0x2ad0 <malloc>
    151e:	8c 8f       	std	Y+28, r24	; 0x1c
    1520:	9d 8f       	std	Y+29, r25	; 0x1d
    1522:	20 e0       	ldi	r18, 0x00	; 0
    1524:	30 e0       	ldi	r19, 0x00	; 0
    1526:	42 e9       	ldi	r20, 0x92	; 146
    1528:	51 e0       	ldi	r21, 0x01	; 1
    152a:	6a 8d       	ldd	r22, Y+26	; 0x1a
    152c:	7b 8d       	ldd	r23, Y+27	; 0x1b
    152e:	dc d6       	rcall	.+3512   	; 0x22e8 <_ZN3vfoC1EP7EncoderP13vfoParametersj>
    1530:	8c ea       	ldi	r24, 0xAC	; 172
    1532:	90 e0       	ldi	r25, 0x00	; 0
    1534:	0e 94 68 15 	call	0x2ad0	; 0x2ad0 <malloc>
    1538:	89 a3       	std	Y+33, r24	; 0x21
    153a:	9a a3       	std	Y+34, r25	; 0x22
    153c:	24 e2       	ldi	r18, 0x24	; 36
    153e:	30 e0       	ldi	r19, 0x00	; 0
    1540:	42 e9       	ldi	r20, 0x92	; 146
    1542:	51 e0       	ldi	r21, 0x01	; 1
    1544:	6a 8d       	ldd	r22, Y+26	; 0x1a
    1546:	7b 8d       	ldd	r23, Y+27	; 0x1b
    1548:	cf d6       	rcall	.+3486   	; 0x22e8 <_ZN3vfoC1EP7EncoderP13vfoParametersj>
    154a:	42 e0       	ldi	r20, 0x02	; 2
    154c:	ce 01       	movw	r24, r28
    154e:	01 96       	adiw	r24, 0x01	; 1
    1550:	1c 01       	movw	r2, r24
    1552:	bc 01       	movw	r22, r24
    1554:	8c 8d       	ldd	r24, Y+28	; 0x1c
    1556:	9d 8d       	ldd	r25, Y+29	; 0x1d
    1558:	0e 94 c3 13 	call	0x2786	; 0x2786 <_ZN3vfo16getTxDisplayFreqEPc5_band>
    155c:	31 01       	movw	r6, r2
    155e:	10 e0       	ldi	r17, 0x00	; 0
    1560:	41 01       	movw	r8, r2
    1562:	f4 01       	movw	r30, r8
    1564:	01 90       	ld	r0, Z+
    1566:	00 20       	and	r0, r0
    1568:	e9 f7       	brne	.-6      	; 0x1564 <main+0x116>
    156a:	31 97       	sbiw	r30, 0x01	; 1
    156c:	e8 19       	sub	r30, r8
    156e:	f9 09       	sbc	r31, r9
    1570:	c3 01       	movw	r24, r6
    1572:	82 19       	sub	r24, r2
    1574:	93 09       	sbc	r25, r3
    1576:	8e 17       	cp	r24, r30
    1578:	9f 07       	cpc	r25, r31
    157a:	88 f4       	brcc	.+34     	; 0x159e <main+0x150>
    157c:	f3 01       	movw	r30, r6
    157e:	61 91       	ld	r22, Z+
    1580:	3f 01       	movw	r6, r30
    1582:	a1 2c       	mov	r10, r1
    1584:	b1 2c       	mov	r11, r1
    1586:	4c e4       	ldi	r20, 0x4C	; 76
    1588:	c4 2e       	mov	r12, r20
    158a:	e1 2c       	mov	r14, r1
    158c:	5c ef       	ldi	r21, 0xFC	; 252
    158e:	f5 2e       	mov	r15, r21
    1590:	00 e0       	ldi	r16, 0x00	; 0
    1592:	21 2f       	mov	r18, r17
    1594:	40 e0       	ldi	r20, 0x00	; 0
    1596:	c2 01       	movw	r24, r4
    1598:	5b db       	rcall	.-2378   	; 0xc50 <_ZN8Graphics10draw2xCharEchh9_pixColorS0_>
    159a:	10 5f       	subi	r17, 0xF0	; 240
    159c:	e2 cf       	rjmp	.-60     	; 0x1562 <main+0x114>
    159e:	42 e0       	ldi	r20, 0x02	; 2
    15a0:	b4 01       	movw	r22, r8
    15a2:	89 a1       	ldd	r24, Y+33	; 0x21
    15a4:	9a a1       	ldd	r25, Y+34	; 0x22
    15a6:	0e 94 c3 13 	call	0x2786	; 0x2786 <_ZN3vfo16getTxDisplayFreqEPc5_band>
    15aa:	41 01       	movw	r8, r2
    15ac:	10 e0       	ldi	r17, 0x00	; 0
    15ae:	ce 01       	movw	r24, r28
    15b0:	01 96       	adiw	r24, 0x01	; 1
    15b2:	3c 01       	movw	r6, r24
    15b4:	f3 01       	movw	r30, r6
    15b6:	01 90       	ld	r0, Z+
    15b8:	00 20       	and	r0, r0
    15ba:	e9 f7       	brne	.-6      	; 0x15b6 <main+0x168>
    15bc:	31 97       	sbiw	r30, 0x01	; 1
    15be:	e6 19       	sub	r30, r6
    15c0:	f7 09       	sbc	r31, r7
    15c2:	c4 01       	movw	r24, r8
    15c4:	82 19       	sub	r24, r2
    15c6:	93 09       	sbc	r25, r3
    15c8:	8e 17       	cp	r24, r30
    15ca:	9f 07       	cpc	r25, r31
    15cc:	90 f4       	brcc	.+36     	; 0x15f2 <main+0x1a4>
    15ce:	f4 01       	movw	r30, r8
    15d0:	61 91       	ld	r22, Z+
    15d2:	4f 01       	movw	r8, r30
    15d4:	a1 2c       	mov	r10, r1
    15d6:	b1 2c       	mov	r11, r1
    15d8:	9c e4       	ldi	r25, 0x4C	; 76
    15da:	c9 2e       	mov	r12, r25
    15dc:	2c e7       	ldi	r18, 0x7C	; 124
    15de:	e2 2e       	mov	r14, r18
    15e0:	3c e7       	ldi	r19, 0x7C	; 124
    15e2:	f3 2e       	mov	r15, r19
    15e4:	0c e7       	ldi	r16, 0x7C	; 124
    15e6:	21 2f       	mov	r18, r17
    15e8:	44 e2       	ldi	r20, 0x24	; 36
    15ea:	c2 01       	movw	r24, r4
    15ec:	31 db       	rcall	.-2462   	; 0xc50 <_ZN8Graphics10draw2xCharEchh9_pixColorS0_>
    15ee:	10 5f       	subi	r17, 0xF0	; 240
    15f0:	e1 cf       	rjmp	.-62     	; 0x15b4 <main+0x166>
    15f2:	8b e5       	ldi	r24, 0x5B	; 91
    15f4:	90 e0       	ldi	r25, 0x00	; 0
    15f6:	0e 94 68 15 	call	0x2ad0	; 0x2ad0 <malloc>
    15fa:	4c 01       	movw	r8, r24
    15fc:	b2 01       	movw	r22, r4
    15fe:	d4 d2       	rcall	.+1448   	; 0x1ba8 <_ZN6paramsC1EP8Graphics>
    1600:	60 e0       	ldi	r22, 0x00	; 0
    1602:	c4 01       	movw	r24, r8
    1604:	20 d3       	rcall	.+1600   	; 0x1c46 <_ZN6params12setActiveVfoE10vfo_actv_t>
    1606:	62 e0       	ldi	r22, 0x02	; 2
    1608:	8c 8d       	ldd	r24, Y+28	; 0x1c
    160a:	9d 8d       	ldd	r25, Y+29	; 0x1d
    160c:	95 d7       	rcall	.+3882   	; 0x2538 <_ZN3vfo9getRxFreqE5_band>
    160e:	69 8b       	std	Y+17, r22	; 0x11
    1610:	7a 8b       	std	Y+18, r23	; 0x12
    1612:	8b 8b       	std	Y+19, r24	; 0x13
    1614:	9c 8b       	std	Y+20, r25	; 0x14
    1616:	69 89       	ldd	r22, Y+17	; 0x11
    1618:	7a 89       	ldd	r23, Y+18	; 0x12
    161a:	8b 89       	ldd	r24, Y+19	; 0x13
    161c:	9c 89       	ldd	r25, Y+20	; 0x14
    161e:	c5 da       	rcall	.-2678   	; 0xbaa <dds>
    1620:	c4 01       	movw	r24, r8
    1622:	0b d3       	rcall	.+1558   	; 0x1c3a <_ZN6params7getModeEv>
    1624:	08 2f       	mov	r16, r24
    1626:	40 e0       	ldi	r20, 0x00	; 0
    1628:	69 e0       	ldi	r22, 0x09	; 9
    162a:	c2 01       	movw	r24, r4
    162c:	e7 de       	rcall	.-562    	; 0x13fc <_ZN3Lcd6gotoxyEhh>
    162e:	60 91 06 01 	lds	r22, 0x0106	; 0x800106 <lcdfp>
    1632:	70 91 07 01 	lds	r23, 0x0107	; 0x800107 <lcdfp+0x1>
    1636:	84 e5       	ldi	r24, 0x54	; 84
    1638:	92 e0       	ldi	r25, 0x02	; 2
    163a:	0e 94 9c 16 	call	0x2d38	; 0x2d38 <fputs>
    163e:	dc 8c       	ldd	r13, Y+28	; 0x1c
    1640:	fd 8d       	ldd	r31, Y+29	; 0x1d
    1642:	fe 8b       	std	Y+22, r31	; 0x16
    1644:	12 e0       	ldi	r17, 0x02	; 2
    1646:	ce 01       	movw	r24, r28
    1648:	01 96       	adiw	r24, 0x01	; 1
    164a:	3c 01       	movw	r6, r24
    164c:	c4 01       	movw	r24, r8
    164e:	f5 d2       	rcall	.+1514   	; 0x1c3a <_ZN6params7getModeEv>
    1650:	8e 8f       	std	Y+30, r24	; 0x1e
    1652:	01 30       	cpi	r16, 0x01	; 1
    1654:	09 f0       	breq	.+2      	; 0x1658 <main+0x20a>
    1656:	e0 c0       	rjmp	.+448    	; 0x1818 <main+0x3ca>
    1658:	81 11       	cpse	r24, r1
    165a:	ec c0       	rjmp	.+472    	; 0x1834 <main+0x3e6>
    165c:	c4 01       	movw	r24, r8
    165e:	e4 d2       	rcall	.+1480   	; 0x1c28 <_ZN6params7getBandEv>
    1660:	18 2f       	mov	r17, r24
    1662:	c4 01       	movw	r24, r8
    1664:	e4 d2       	rcall	.+1480   	; 0x1c2e <_ZN6params6getVfoEv>
    1666:	41 2f       	mov	r20, r17
    1668:	b3 01       	movw	r22, r6
    166a:	81 11       	cpse	r24, r1
    166c:	5a c0       	rjmp	.+180    	; 0x1722 <main+0x2d4>
    166e:	8c 8d       	ldd	r24, Y+28	; 0x1c
    1670:	9d 8d       	ldd	r25, Y+29	; 0x1d
    1672:	0e 94 c3 13 	call	0x2786	; 0x2786 <_ZN3vfo16getTxDisplayFreqEPc5_band>
    1676:	3f 8a       	std	Y+23, r3	; 0x17
    1678:	2e 8a       	std	Y+22, r2	; 0x16
    167a:	30 e0       	ldi	r19, 0x00	; 0
    167c:	f3 01       	movw	r30, r6
    167e:	01 90       	ld	r0, Z+
    1680:	00 20       	and	r0, r0
    1682:	e9 f7       	brne	.-6      	; 0x167e <main+0x230>
    1684:	31 97       	sbiw	r30, 0x01	; 1
    1686:	e6 19       	sub	r30, r6
    1688:	f7 09       	sbc	r31, r7
    168a:	8e 89       	ldd	r24, Y+22	; 0x16
    168c:	9f 89       	ldd	r25, Y+23	; 0x17
    168e:	82 19       	sub	r24, r2
    1690:	93 09       	sbc	r25, r3
    1692:	8e 17       	cp	r24, r30
    1694:	9f 07       	cpc	r25, r31
    1696:	a8 f4       	brcc	.+42     	; 0x16c2 <main+0x274>
    1698:	ee 89       	ldd	r30, Y+22	; 0x16
    169a:	ff 89       	ldd	r31, Y+23	; 0x17
    169c:	61 91       	ld	r22, Z+
    169e:	ff 8b       	std	Y+23, r31	; 0x17
    16a0:	ee 8b       	std	Y+22, r30	; 0x16
    16a2:	a1 2c       	mov	r10, r1
    16a4:	b1 2c       	mov	r11, r1
    16a6:	0c e4       	ldi	r16, 0x4C	; 76
    16a8:	c0 2e       	mov	r12, r16
    16aa:	e1 2c       	mov	r14, r1
    16ac:	8c ef       	ldi	r24, 0xFC	; 252
    16ae:	f8 2e       	mov	r15, r24
    16b0:	00 e0       	ldi	r16, 0x00	; 0
    16b2:	23 2f       	mov	r18, r19
    16b4:	40 e0       	ldi	r20, 0x00	; 0
    16b6:	c2 01       	movw	r24, r4
    16b8:	3a a7       	std	Y+42, r19	; 0x2a
    16ba:	ca da       	rcall	.-2668   	; 0xc50 <_ZN8Graphics10draw2xCharEchh9_pixColorS0_>
    16bc:	3a a5       	ldd	r19, Y+42	; 0x2a
    16be:	30 5f       	subi	r19, 0xF0	; 240
    16c0:	dd cf       	rjmp	.-70     	; 0x167c <main+0x22e>
    16c2:	41 2f       	mov	r20, r17
    16c4:	b3 01       	movw	r22, r6
    16c6:	89 a1       	ldd	r24, Y+33	; 0x21
    16c8:	9a a1       	ldd	r25, Y+34	; 0x22
    16ca:	0e 94 c3 13 	call	0x2786	; 0x2786 <_ZN3vfo16getTxDisplayFreqEPc5_band>
    16ce:	3f 8a       	std	Y+23, r3	; 0x17
    16d0:	2e 8a       	std	Y+22, r2	; 0x16
    16d2:	30 e0       	ldi	r19, 0x00	; 0
    16d4:	f3 01       	movw	r30, r6
    16d6:	01 90       	ld	r0, Z+
    16d8:	00 20       	and	r0, r0
    16da:	e9 f7       	brne	.-6      	; 0x16d6 <main+0x288>
    16dc:	31 97       	sbiw	r30, 0x01	; 1
    16de:	e6 19       	sub	r30, r6
    16e0:	f7 09       	sbc	r31, r7
    16e2:	8e 89       	ldd	r24, Y+22	; 0x16
    16e4:	9f 89       	ldd	r25, Y+23	; 0x17
    16e6:	82 19       	sub	r24, r2
    16e8:	93 09       	sbc	r25, r3
    16ea:	8e 17       	cp	r24, r30
    16ec:	9f 07       	cpc	r25, r31
    16ee:	b0 f4       	brcc	.+44     	; 0x171c <main+0x2ce>
    16f0:	ee 89       	ldd	r30, Y+22	; 0x16
    16f2:	ff 89       	ldd	r31, Y+23	; 0x17
    16f4:	61 91       	ld	r22, Z+
    16f6:	ff 8b       	std	Y+23, r31	; 0x17
    16f8:	ee 8b       	std	Y+22, r30	; 0x16
    16fa:	a1 2c       	mov	r10, r1
    16fc:	b1 2c       	mov	r11, r1
    16fe:	fc e4       	ldi	r31, 0x4C	; 76
    1700:	cf 2e       	mov	r12, r31
    1702:	ac e7       	ldi	r26, 0x7C	; 124
    1704:	ea 2e       	mov	r14, r26
    1706:	bc e7       	ldi	r27, 0x7C	; 124
    1708:	fb 2e       	mov	r15, r27
    170a:	0c e7       	ldi	r16, 0x7C	; 124
    170c:	23 2f       	mov	r18, r19
    170e:	44 e2       	ldi	r20, 0x24	; 36
    1710:	c2 01       	movw	r24, r4
    1712:	3a a7       	std	Y+42, r19	; 0x2a
    1714:	9d da       	rcall	.-2758   	; 0xc50 <_ZN8Graphics10draw2xCharEchh9_pixColorS0_>
    1716:	3a a5       	ldd	r19, Y+42	; 0x2a
    1718:	30 5f       	subi	r19, 0xF0	; 240
    171a:	dc cf       	rjmp	.-72     	; 0x16d4 <main+0x286>
    171c:	dc 8c       	ldd	r13, Y+28	; 0x1c
    171e:	fd 8d       	ldd	r31, Y+29	; 0x1d
    1720:	59 c0       	rjmp	.+178    	; 0x17d4 <main+0x386>
    1722:	8c 8d       	ldd	r24, Y+28	; 0x1c
    1724:	9d 8d       	ldd	r25, Y+29	; 0x1d
    1726:	0e 94 c3 13 	call	0x2786	; 0x2786 <_ZN3vfo16getTxDisplayFreqEPc5_band>
    172a:	3f 8a       	std	Y+23, r3	; 0x17
    172c:	2e 8a       	std	Y+22, r2	; 0x16
    172e:	30 e0       	ldi	r19, 0x00	; 0
    1730:	f3 01       	movw	r30, r6
    1732:	01 90       	ld	r0, Z+
    1734:	00 20       	and	r0, r0
    1736:	e9 f7       	brne	.-6      	; 0x1732 <main+0x2e4>
    1738:	31 97       	sbiw	r30, 0x01	; 1
    173a:	e6 19       	sub	r30, r6
    173c:	f7 09       	sbc	r31, r7
    173e:	8e 89       	ldd	r24, Y+22	; 0x16
    1740:	9f 89       	ldd	r25, Y+23	; 0x17
    1742:	82 19       	sub	r24, r2
    1744:	93 09       	sbc	r25, r3
    1746:	8e 17       	cp	r24, r30
    1748:	9f 07       	cpc	r25, r31
    174a:	b0 f4       	brcc	.+44     	; 0x1778 <main+0x32a>
    174c:	ee 89       	ldd	r30, Y+22	; 0x16
    174e:	ff 89       	ldd	r31, Y+23	; 0x17
    1750:	61 91       	ld	r22, Z+
    1752:	ff 8b       	std	Y+23, r31	; 0x17
    1754:	ee 8b       	std	Y+22, r30	; 0x16
    1756:	a1 2c       	mov	r10, r1
    1758:	b1 2c       	mov	r11, r1
    175a:	5c e4       	ldi	r21, 0x4C	; 76
    175c:	c5 2e       	mov	r12, r21
    175e:	7c e7       	ldi	r23, 0x7C	; 124
    1760:	e7 2e       	mov	r14, r23
    1762:	ec e7       	ldi	r30, 0x7C	; 124
    1764:	fe 2e       	mov	r15, r30
    1766:	0c e7       	ldi	r16, 0x7C	; 124
    1768:	23 2f       	mov	r18, r19
    176a:	40 e0       	ldi	r20, 0x00	; 0
    176c:	c2 01       	movw	r24, r4
    176e:	3a a7       	std	Y+42, r19	; 0x2a
    1770:	6f da       	rcall	.-2850   	; 0xc50 <_ZN8Graphics10draw2xCharEchh9_pixColorS0_>
    1772:	3a a5       	ldd	r19, Y+42	; 0x2a
    1774:	30 5f       	subi	r19, 0xF0	; 240
    1776:	dc cf       	rjmp	.-72     	; 0x1730 <main+0x2e2>
    1778:	41 2f       	mov	r20, r17
    177a:	b3 01       	movw	r22, r6
    177c:	89 a1       	ldd	r24, Y+33	; 0x21
    177e:	9a a1       	ldd	r25, Y+34	; 0x22
    1780:	0e 94 c3 13 	call	0x2786	; 0x2786 <_ZN3vfo16getTxDisplayFreqEPc5_band>
    1784:	3f 8a       	std	Y+23, r3	; 0x17
    1786:	2e 8a       	std	Y+22, r2	; 0x16
    1788:	30 e0       	ldi	r19, 0x00	; 0
    178a:	f3 01       	movw	r30, r6
    178c:	01 90       	ld	r0, Z+
    178e:	00 20       	and	r0, r0
    1790:	e9 f7       	brne	.-6      	; 0x178c <main+0x33e>
    1792:	31 97       	sbiw	r30, 0x01	; 1
    1794:	e6 19       	sub	r30, r6
    1796:	f7 09       	sbc	r31, r7
    1798:	8e 89       	ldd	r24, Y+22	; 0x16
    179a:	9f 89       	ldd	r25, Y+23	; 0x17
    179c:	82 19       	sub	r24, r2
    179e:	93 09       	sbc	r25, r3
    17a0:	8e 17       	cp	r24, r30
    17a2:	9f 07       	cpc	r25, r31
    17a4:	a8 f4       	brcc	.+42     	; 0x17d0 <main+0x382>
    17a6:	ee 89       	ldd	r30, Y+22	; 0x16
    17a8:	ff 89       	ldd	r31, Y+23	; 0x17
    17aa:	61 91       	ld	r22, Z+
    17ac:	ff 8b       	std	Y+23, r31	; 0x17
    17ae:	ee 8b       	std	Y+22, r30	; 0x16
    17b0:	a1 2c       	mov	r10, r1
    17b2:	b1 2c       	mov	r11, r1
    17b4:	2c e4       	ldi	r18, 0x4C	; 76
    17b6:	c2 2e       	mov	r12, r18
    17b8:	e1 2c       	mov	r14, r1
    17ba:	4c ef       	ldi	r20, 0xFC	; 252
    17bc:	f4 2e       	mov	r15, r20
    17be:	00 e0       	ldi	r16, 0x00	; 0
    17c0:	23 2f       	mov	r18, r19
    17c2:	44 e2       	ldi	r20, 0x24	; 36
    17c4:	c2 01       	movw	r24, r4
    17c6:	3a a7       	std	Y+42, r19	; 0x2a
    17c8:	43 da       	rcall	.-2938   	; 0xc50 <_ZN8Graphics10draw2xCharEchh9_pixColorS0_>
    17ca:	3a a5       	ldd	r19, Y+42	; 0x2a
    17cc:	30 5f       	subi	r19, 0xF0	; 240
    17ce:	dd cf       	rjmp	.-70     	; 0x178a <main+0x33c>
    17d0:	d9 a0       	ldd	r13, Y+33	; 0x21
    17d2:	fa a1       	ldd	r31, Y+34	; 0x22
    17d4:	fe 8b       	std	Y+22, r31	; 0x16
    17d6:	c4 01       	movw	r24, r8
    17d8:	24 d2       	rcall	.+1096   	; 0x1c22 <_ZN6params7getStepEv>
    17da:	68 2f       	mov	r22, r24
    17dc:	8d 2d       	mov	r24, r13
    17de:	9e 89       	ldd	r25, Y+22	; 0x16
    17e0:	f1 d6       	rcall	.+3554   	; 0x25c4 <_ZN3vfo7setStepE6step_t>
    17e2:	c4 01       	movw	r24, r8
    17e4:	27 d2       	rcall	.+1102   	; 0x1c34 <_ZN6params12getActiveVfoEv>
    17e6:	81 11       	cpse	r24, r1
    17e8:	09 c0       	rjmp	.+18     	; 0x17fc <main+0x3ae>
    17ea:	61 2f       	mov	r22, r17
    17ec:	8d 2d       	mov	r24, r13
    17ee:	9e 89       	ldd	r25, Y+22	; 0x16
    17f0:	a3 d6       	rcall	.+3398   	; 0x2538 <_ZN3vfo9getRxFreqE5_band>
    17f2:	69 8b       	std	Y+17, r22	; 0x11
    17f4:	7a 8b       	std	Y+18, r23	; 0x12
    17f6:	8b 8b       	std	Y+19, r24	; 0x13
    17f8:	9c 8b       	std	Y+20, r25	; 0x14
    17fa:	08 c0       	rjmp	.+16     	; 0x180c <main+0x3be>
    17fc:	89 89       	ldd	r24, Y+17	; 0x11
    17fe:	9a 89       	ldd	r25, Y+18	; 0x12
    1800:	ab 89       	ldd	r26, Y+19	; 0x13
    1802:	bc 89       	ldd	r27, Y+20	; 0x14
    1804:	61 2f       	mov	r22, r17
    1806:	8d 2d       	mov	r24, r13
    1808:	9e 89       	ldd	r25, Y+22	; 0x16
    180a:	b9 d6       	rcall	.+3442   	; 0x257e <_ZN3vfo9getTxFreqE5_band>
    180c:	69 89       	ldd	r22, Y+17	; 0x11
    180e:	7a 89       	ldd	r23, Y+18	; 0x12
    1810:	8b 89       	ldd	r24, Y+19	; 0x13
    1812:	9c 89       	ldd	r25, Y+20	; 0x14
    1814:	ca d9       	rcall	.-3180   	; 0xbaa <dds>
    1816:	81 c0       	rjmp	.+258    	; 0x191a <main+0x4cc>
    1818:	8e 8d       	ldd	r24, Y+30	; 0x1e
    181a:	81 30       	cpi	r24, 0x01	; 1
    181c:	71 f4       	brne	.+28     	; 0x183a <main+0x3ec>
    181e:	01 11       	cpse	r16, r1
    1820:	12 c0       	rjmp	.+36     	; 0x1846 <main+0x3f8>
    1822:	2f 8d       	ldd	r18, Y+31	; 0x1f
    1824:	38 a1       	ldd	r19, Y+32	; 0x20
    1826:	48 8d       	ldd	r20, Y+24	; 0x18
    1828:	59 8d       	ldd	r21, Y+25	; 0x19
    182a:	6a 8d       	ldd	r22, Y+26	; 0x1a
    182c:	7b 8d       	ldd	r23, Y+27	; 0x1b
    182e:	c4 01       	movw	r24, r8
    1830:	63 d4       	rcall	.+2246   	; 0x20f8 <_ZN6params11updateEnterEP7EncoderP2SwP3Lcd>
    1832:	73 c0       	rjmp	.+230    	; 0x191a <main+0x4cc>
    1834:	fe 8d       	ldd	r31, Y+30	; 0x1e
    1836:	f1 30       	cpi	r31, 0x01	; 1
    1838:	31 f0       	breq	.+12     	; 0x1846 <main+0x3f8>
    183a:	9e 8d       	ldd	r25, Y+30	; 0x1e
    183c:	99 23       	and	r25, r25
    183e:	61 f0       	breq	.+24     	; 0x1858 <main+0x40a>
    1840:	91 30       	cpi	r25, 0x01	; 1
    1842:	09 f0       	breq	.+2      	; 0x1846 <main+0x3f8>
    1844:	6a c0       	rjmp	.+212    	; 0x191a <main+0x4cc>
    1846:	2f 8d       	ldd	r18, Y+31	; 0x1f
    1848:	38 a1       	ldd	r19, Y+32	; 0x20
    184a:	48 8d       	ldd	r20, Y+24	; 0x18
    184c:	59 8d       	ldd	r21, Y+25	; 0x19
    184e:	6a 8d       	ldd	r22, Y+26	; 0x1a
    1850:	7b 8d       	ldd	r23, Y+27	; 0x1b
    1852:	c4 01       	movw	r24, r8
    1854:	38 d2       	rcall	.+1136   	; 0x1cc6 <_ZN6params6updateEP7EncoderP2SwP3Lcd>
    1856:	61 c0       	rjmp	.+194    	; 0x191a <main+0x4cc>
    1858:	88 8d       	ldd	r24, Y+24	; 0x18
    185a:	99 8d       	ldd	r25, Y+25	; 0x19
    185c:	0b d5       	rcall	.+2582   	; 0x2274 <_ZN2Sw8hasEventEv>
    185e:	88 23       	and	r24, r24
    1860:	89 f0       	breq	.+34     	; 0x1884 <main+0x436>
    1862:	88 8d       	ldd	r24, Y+24	; 0x18
    1864:	99 8d       	ldd	r25, Y+25	; 0x19
    1866:	0e d5       	rcall	.+2588   	; 0x2284 <_ZN2Sw8getEventEv>
    1868:	82 30       	cpi	r24, 0x02	; 2
    186a:	41 f0       	breq	.+16     	; 0x187c <main+0x42e>
    186c:	88 8d       	ldd	r24, Y+24	; 0x18
    186e:	99 8d       	ldd	r25, Y+25	; 0x19
    1870:	09 d5       	rcall	.+2578   	; 0x2284 <_ZN2Sw8getEventEv>
    1872:	81 30       	cpi	r24, 0x01	; 1
    1874:	19 f4       	brne	.+6      	; 0x187c <main+0x42e>
    1876:	61 e0       	ldi	r22, 0x01	; 1
    1878:	c4 01       	movw	r24, r8
    187a:	e2 d1       	rcall	.+964    	; 0x1c40 <_ZN6params7setModeE7_mode_t>
    187c:	88 8d       	ldd	r24, Y+24	; 0x18
    187e:	99 8d       	ldd	r25, Y+25	; 0x19
    1880:	04 d5       	rcall	.+2568   	; 0x228a <_ZN2Sw10clearEventEv>
    1882:	4b c0       	rjmp	.+150    	; 0x191a <main+0x4cc>
    1884:	8a 8d       	ldd	r24, Y+26	; 0x1a
    1886:	9b 8d       	ldd	r25, Y+27	; 0x1b
    1888:	03 d8       	rcall	.-4090   	; 0x890 <_ZN7Encoder8hasEventEv>
    188a:	88 23       	and	r24, r24
    188c:	09 f4       	brne	.+2      	; 0x1890 <main+0x442>
    188e:	45 c0       	rjmp	.+138    	; 0x191a <main+0x4cc>
    1890:	61 2f       	mov	r22, r17
    1892:	8d 2d       	mov	r24, r13
    1894:	9e 89       	ldd	r25, Y+22	; 0x16
    1896:	a3 d5       	rcall	.+2886   	; 0x23de <_ZN3vfo6updateEh>
    1898:	8a 8d       	ldd	r24, Y+26	; 0x1a
    189a:	9b 8d       	ldd	r25, Y+27	; 0x1b
    189c:	04 d8       	rcall	.-4088   	; 0x8a6 <_ZN7Encoder10clearEventEv>
    189e:	61 2f       	mov	r22, r17
    18a0:	8d 2d       	mov	r24, r13
    18a2:	9e 89       	ldd	r25, Y+22	; 0x16
    18a4:	6c d6       	rcall	.+3288   	; 0x257e <_ZN3vfo9getTxFreqE5_band>
    18a6:	69 8b       	std	Y+17, r22	; 0x11
    18a8:	7a 8b       	std	Y+18, r23	; 0x12
    18aa:	8b 8b       	std	Y+19, r24	; 0x13
    18ac:	9c 8b       	std	Y+20, r25	; 0x14
    18ae:	69 89       	ldd	r22, Y+17	; 0x11
    18b0:	7a 89       	ldd	r23, Y+18	; 0x12
    18b2:	8b 89       	ldd	r24, Y+19	; 0x13
    18b4:	9c 89       	ldd	r25, Y+20	; 0x14
    18b6:	79 d9       	rcall	.-3342   	; 0xbaa <dds>
    18b8:	41 2f       	mov	r20, r17
    18ba:	b3 01       	movw	r22, r6
    18bc:	8d 2d       	mov	r24, r13
    18be:	9e 89       	ldd	r25, Y+22	; 0x16
    18c0:	62 d7       	rcall	.+3780   	; 0x2786 <_ZN3vfo16getTxDisplayFreqEPc5_band>
    18c2:	8d 2d       	mov	r24, r13
    18c4:	9e 89       	ldd	r25, Y+22	; 0x16
    18c6:	91 d7       	rcall	.+3874   	; 0x27ea <_ZN3vfo7getLineEv>
    18c8:	58 2f       	mov	r21, r24
    18ca:	38 a6       	std	Y+40, r3	; 0x28
    18cc:	2f a2       	std	Y+39, r2	; 0x27
    18ce:	30 e0       	ldi	r19, 0x00	; 0
    18d0:	f3 01       	movw	r30, r6
    18d2:	01 90       	ld	r0, Z+
    18d4:	00 20       	and	r0, r0
    18d6:	e9 f7       	brne	.-6      	; 0x18d2 <main+0x484>
    18d8:	31 97       	sbiw	r30, 0x01	; 1
    18da:	e6 19       	sub	r30, r6
    18dc:	f7 09       	sbc	r31, r7
    18de:	8f a1       	ldd	r24, Y+39	; 0x27
    18e0:	98 a5       	ldd	r25, Y+40	; 0x28
    18e2:	82 19       	sub	r24, r2
    18e4:	93 09       	sbc	r25, r3
    18e6:	8e 17       	cp	r24, r30
    18e8:	9f 07       	cpc	r25, r31
    18ea:	b8 f4       	brcc	.+46     	; 0x191a <main+0x4cc>
    18ec:	ef a1       	ldd	r30, Y+39	; 0x27
    18ee:	f8 a5       	ldd	r31, Y+40	; 0x28
    18f0:	61 91       	ld	r22, Z+
    18f2:	f8 a7       	std	Y+40, r31	; 0x28
    18f4:	ef a3       	std	Y+39, r30	; 0x27
    18f6:	a1 2c       	mov	r10, r1
    18f8:	b1 2c       	mov	r11, r1
    18fa:	8c e4       	ldi	r24, 0x4C	; 76
    18fc:	c8 2e       	mov	r12, r24
    18fe:	e1 2c       	mov	r14, r1
    1900:	9c ef       	ldi	r25, 0xFC	; 252
    1902:	f9 2e       	mov	r15, r25
    1904:	00 e0       	ldi	r16, 0x00	; 0
    1906:	23 2f       	mov	r18, r19
    1908:	45 2f       	mov	r20, r21
    190a:	c2 01       	movw	r24, r4
    190c:	3a a7       	std	Y+42, r19	; 0x2a
    190e:	59 a7       	std	Y+41, r21	; 0x29
    1910:	9f d9       	rcall	.-3266   	; 0xc50 <_ZN8Graphics10draw2xCharEchh9_pixColorS0_>
    1912:	3a a5       	ldd	r19, Y+42	; 0x2a
    1914:	30 5f       	subi	r19, 0xF0	; 240
    1916:	59 a5       	ldd	r21, Y+41	; 0x29
    1918:	db cf       	rjmp	.-74     	; 0x18d0 <main+0x482>
    191a:	8b a1       	ldd	r24, Y+35	; 0x23
    191c:	9c a1       	ldd	r25, Y+36	; 0x24
    191e:	aa d4       	rcall	.+2388   	; 0x2274 <_ZN2Sw8hasEventEv>
    1920:	88 23       	and	r24, r24
    1922:	81 f1       	breq	.+96     	; 0x1984 <main+0x536>
    1924:	8b a1       	ldd	r24, Y+35	; 0x23
    1926:	9c a1       	ldd	r25, Y+36	; 0x24
    1928:	ad d4       	rcall	.+2394   	; 0x2284 <_ZN2Sw8getEventEv>
    192a:	61 2f       	mov	r22, r17
    192c:	82 30       	cpi	r24, 0x02	; 2
    192e:	99 f4       	brne	.+38     	; 0x1956 <main+0x508>
    1930:	8d 2d       	mov	r24, r13
    1932:	9e 89       	ldd	r25, Y+22	; 0x16
    1934:	24 d6       	rcall	.+3144   	; 0x257e <_ZN3vfo9getTxFreqE5_band>
    1936:	69 8b       	std	Y+17, r22	; 0x11
    1938:	7a 8b       	std	Y+18, r23	; 0x12
    193a:	8b 8b       	std	Y+19, r24	; 0x13
    193c:	9c 8b       	std	Y+20, r25	; 0x14
    193e:	69 89       	ldd	r22, Y+17	; 0x11
    1940:	7a 89       	ldd	r23, Y+18	; 0x12
    1942:	8b 89       	ldd	r24, Y+19	; 0x13
    1944:	9c 89       	ldd	r25, Y+20	; 0x14
    1946:	31 d9       	rcall	.-3486   	; 0xbaa <dds>
    1948:	8b b1       	in	r24, 0x0b	; 11
    194a:	8d 8b       	std	Y+21, r24	; 0x15
    194c:	8d 89       	ldd	r24, Y+21	; 0x15
    194e:	80 64       	ori	r24, 0x40	; 64
    1950:	8b b9       	out	0x0b, r24	; 11
    1952:	61 e0       	ldi	r22, 0x01	; 1
    1954:	12 c0       	rjmp	.+36     	; 0x197a <main+0x52c>
    1956:	8d 2d       	mov	r24, r13
    1958:	9e 89       	ldd	r25, Y+22	; 0x16
    195a:	ee d5       	rcall	.+3036   	; 0x2538 <_ZN3vfo9getRxFreqE5_band>
    195c:	69 8b       	std	Y+17, r22	; 0x11
    195e:	7a 8b       	std	Y+18, r23	; 0x12
    1960:	8b 8b       	std	Y+19, r24	; 0x13
    1962:	9c 8b       	std	Y+20, r25	; 0x14
    1964:	69 89       	ldd	r22, Y+17	; 0x11
    1966:	7a 89       	ldd	r23, Y+18	; 0x12
    1968:	8b 89       	ldd	r24, Y+19	; 0x13
    196a:	9c 89       	ldd	r25, Y+20	; 0x14
    196c:	1e d9       	rcall	.-3524   	; 0xbaa <dds>
    196e:	8b b1       	in	r24, 0x0b	; 11
    1970:	8d 8b       	std	Y+21, r24	; 0x15
    1972:	8d 89       	ldd	r24, Y+21	; 0x15
    1974:	8f 7b       	andi	r24, 0xBF	; 191
    1976:	8b b9       	out	0x0b, r24	; 11
    1978:	60 e0       	ldi	r22, 0x00	; 0
    197a:	c4 01       	movw	r24, r8
    197c:	64 d1       	rcall	.+712    	; 0x1c46 <_ZN6params12setActiveVfoE10vfo_actv_t>
    197e:	8b a1       	ldd	r24, Y+35	; 0x23
    1980:	9c a1       	ldd	r25, Y+36	; 0x24
    1982:	83 d4       	rcall	.+2310   	; 0x228a <_ZN2Sw10clearEventEv>
    1984:	8d a1       	ldd	r24, Y+37	; 0x25
    1986:	9e a1       	ldd	r25, Y+38	; 0x26
    1988:	75 d4       	rcall	.+2282   	; 0x2274 <_ZN2Sw8hasEventEv>
    198a:	81 11       	cpse	r24, r1
    198c:	02 c0       	rjmp	.+4      	; 0x1992 <main+0x544>
    198e:	0e 8d       	ldd	r16, Y+30	; 0x1e
    1990:	5d ce       	rjmp	.-838    	; 0x164c <main+0x1fe>
    1992:	8d a1       	ldd	r24, Y+37	; 0x25
    1994:	9e a1       	ldd	r25, Y+38	; 0x26
    1996:	76 d4       	rcall	.+2284   	; 0x2284 <_ZN2Sw8getEventEv>
    1998:	82 30       	cpi	r24, 0x02	; 2
    199a:	19 f4       	brne	.+6      	; 0x19a2 <main+0x554>
    199c:	6a e5       	ldi	r22, 0x5A	; 90
    199e:	72 e0       	ldi	r23, 0x02	; 2
    19a0:	02 c0       	rjmp	.+4      	; 0x19a6 <main+0x558>
    19a2:	65 e6       	ldi	r22, 0x65	; 101
    19a4:	72 e0       	ldi	r23, 0x02	; 2
    19a6:	c3 01       	movw	r24, r6
    19a8:	0e 94 95 16 	call	0x2d2a	; 0x2d2a <strcpy>
    19ac:	8d a1       	ldd	r24, Y+37	; 0x25
    19ae:	9e a1       	ldd	r25, Y+38	; 0x26
    19b0:	6c d4       	rcall	.+2264   	; 0x228a <_ZN2Sw10clearEventEv>
    19b2:	40 e0       	ldi	r20, 0x00	; 0
    19b4:	69 e0       	ldi	r22, 0x09	; 9
    19b6:	8f 8d       	ldd	r24, Y+31	; 0x1f
    19b8:	98 a1       	ldd	r25, Y+32	; 0x20
    19ba:	20 dd       	rcall	.-1472   	; 0x13fc <_ZN3Lcd6gotoxyEhh>
    19bc:	b3 01       	movw	r22, r6
    19be:	8f 8d       	ldd	r24, Y+31	; 0x1f
    19c0:	98 a1       	ldd	r25, Y+32	; 0x20
    19c2:	bf dc       	rcall	.-1666   	; 0x1342 <_ZN3Lcd4putsEPKc>
    19c4:	e4 cf       	rjmp	.-56     	; 0x198e <main+0x540>

000019c6 <_ZN6params8callbackEv>:
    19c6:	fc 01       	movw	r30, r24
    19c8:	e4 5b       	subi	r30, 0xB4	; 180
    19ca:	ff 4f       	sbci	r31, 0xFF	; 255
    19cc:	81 e0       	ldi	r24, 0x01	; 1
    19ce:	80 83       	st	Z, r24
    19d0:	08 95       	ret

000019d2 <_Z6memcpyPvPKvj>:
    19d2:	fb 01       	movw	r30, r22
    19d4:	dc 01       	movw	r26, r24
    19d6:	48 0f       	add	r20, r24
    19d8:	59 1f       	adc	r21, r25
    19da:	a4 17       	cp	r26, r20
    19dc:	b5 07       	cpc	r27, r21
    19de:	19 f0       	breq	.+6      	; 0x19e6 <_Z6memcpyPvPKvj+0x14>
    19e0:	21 91       	ld	r18, Z+
    19e2:	2d 93       	st	X+, r18
    19e4:	fa cf       	rjmp	.-12     	; 0x19da <_Z6memcpyPvPKvj+0x8>
    19e6:	08 95       	ret

000019e8 <_ZN6params10initParamsEP3Lcd>:
    19e8:	2f 92       	push	r2
    19ea:	3f 92       	push	r3
    19ec:	4f 92       	push	r4
    19ee:	5f 92       	push	r5
    19f0:	6f 92       	push	r6
    19f2:	7f 92       	push	r7
    19f4:	8f 92       	push	r8
    19f6:	9f 92       	push	r9
    19f8:	af 92       	push	r10
    19fa:	bf 92       	push	r11
    19fc:	cf 92       	push	r12
    19fe:	df 92       	push	r13
    1a00:	ef 92       	push	r14
    1a02:	ff 92       	push	r15
    1a04:	0f 93       	push	r16
    1a06:	1f 93       	push	r17
    1a08:	cf 93       	push	r28
    1a0a:	df 93       	push	r29
    1a0c:	cd b7       	in	r28, 0x3d	; 61
    1a0e:	de b7       	in	r29, 0x3e	; 62
    1a10:	61 97       	sbiw	r28, 0x11	; 17
    1a12:	0f b6       	in	r0, 0x3f	; 63
    1a14:	f8 94       	cli
    1a16:	de bf       	out	0x3e, r29	; 62
    1a18:	0f be       	out	0x3f, r0	; 63
    1a1a:	cd bf       	out	0x3d, r28	; 61
    1a1c:	6c 01       	movw	r12, r24
    1a1e:	4b 01       	movw	r8, r22
    1a20:	5c 01       	movw	r10, r24
    1a22:	8b e4       	ldi	r24, 0x4B	; 75
    1a24:	a8 0e       	add	r10, r24
    1a26:	b1 1c       	adc	r11, r1
    1a28:	d5 01       	movw	r26, r10
    1a2a:	1c 92       	st	X, r1
    1a2c:	10 e0       	ldi	r17, 0x00	; 0
    1a2e:	50 e0       	ldi	r21, 0x00	; 0
    1a30:	16 01       	movw	r2, r12
    1a32:	b5 e5       	ldi	r27, 0x55	; 85
    1a34:	2b 0e       	add	r2, r27
    1a36:	31 1c       	adc	r3, r1
    1a38:	26 01       	movw	r4, r12
    1a3a:	e2 e5       	ldi	r30, 0x52	; 82
    1a3c:	4e 0e       	add	r4, r30
    1a3e:	51 1c       	adc	r5, r1
    1a40:	ce 01       	movw	r24, r28
    1a42:	01 96       	adiw	r24, 0x01	; 1
    1a44:	3c 01       	movw	r6, r24
    1a46:	d5 01       	movw	r26, r10
    1a48:	8c 91       	ld	r24, X
    1a4a:	86 30       	cpi	r24, 0x06	; 6
    1a4c:	09 f4       	brne	.+2      	; 0x1a50 <_ZN6params10initParamsEP3Lcd+0x68>
    1a4e:	92 c0       	rjmp	.+292    	; 0x1b74 <_ZN6params10initParamsEP3Lcd+0x18c>
    1a50:	f6 01       	movw	r30, r12
    1a52:	9b e0       	ldi	r25, 0x0B	; 11
    1a54:	98 9f       	mul	r25, r24
    1a56:	e0 0d       	add	r30, r0
    1a58:	f1 1d       	adc	r31, r1
    1a5a:	11 24       	eor	r1, r1
    1a5c:	44 85       	ldd	r20, Z+12	; 0x0c
    1a5e:	62 85       	ldd	r22, Z+10	; 0x0a
    1a60:	c4 01       	movw	r24, r8
    1a62:	59 8b       	std	Y+17, r21	; 0x11
    1a64:	cb dc       	rcall	.-1642   	; 0x13fc <_ZN3Lcd6gotoxyEhh>
    1a66:	d1 01       	movw	r26, r2
    1a68:	ed 90       	ld	r14, X+
    1a6a:	fd 90       	ld	r15, X+
    1a6c:	0c 91       	ld	r16, X
    1a6e:	f2 01       	movw	r30, r4
    1a70:	20 81       	ld	r18, Z
    1a72:	31 81       	ldd	r19, Z+1	; 0x01
    1a74:	42 81       	ldd	r20, Z+2	; 0x02
    1a76:	d5 01       	movw	r26, r10
    1a78:	8c 91       	ld	r24, X
    1a7a:	f6 01       	movw	r30, r12
    1a7c:	bb e0       	ldi	r27, 0x0B	; 11
    1a7e:	b8 9f       	mul	r27, r24
    1a80:	e0 0d       	add	r30, r0
    1a82:	f1 1d       	adc	r31, r1
    1a84:	11 24       	eor	r1, r1
    1a86:	66 85       	ldd	r22, Z+14	; 0x0e
    1a88:	77 85       	ldd	r23, Z+15	; 0x0f
    1a8a:	c4 01       	movw	r24, r8
    1a8c:	72 dc       	rcall	.-1820   	; 0x1372 <_ZN3Lcd4putsEPKc9_pixColorS2_>
    1a8e:	f5 01       	movw	r30, r10
    1a90:	80 81       	ld	r24, Z
    1a92:	f6 01       	movw	r30, r12
    1a94:	9b e0       	ldi	r25, 0x0B	; 11
    1a96:	98 9f       	mul	r25, r24
    1a98:	e0 0d       	add	r30, r0
    1a9a:	f1 1d       	adc	r31, r1
    1a9c:	11 24       	eor	r1, r1
    1a9e:	42 89       	ldd	r20, Z+18	; 0x12
    1aa0:	60 89       	ldd	r22, Z+16	; 0x10
    1aa2:	c4 01       	movw	r24, r8
    1aa4:	ab dc       	rcall	.-1706   	; 0x13fc <_ZN3Lcd6gotoxyEhh>
    1aa6:	d5 01       	movw	r26, r10
    1aa8:	8c 91       	ld	r24, X
    1aaa:	59 89       	ldd	r21, Y+17	; 0x11
    1aac:	82 30       	cpi	r24, 0x02	; 2
    1aae:	31 f1       	breq	.+76     	; 0x1afc <_ZN6params10initParamsEP3Lcd+0x114>
    1ab0:	70 f4       	brcc	.+28     	; 0x1ace <_ZN6params10initParamsEP3Lcd+0xe6>
    1ab2:	88 23       	and	r24, r24
    1ab4:	d1 f0       	breq	.+52     	; 0x1aea <_ZN6params10initParamsEP3Lcd+0x102>
    1ab6:	81 30       	cpi	r24, 0x01	; 1
    1ab8:	09 f0       	breq	.+2      	; 0x1abc <_ZN6params10initParamsEP3Lcd+0xd4>
    1aba:	49 c0       	rjmp	.+146    	; 0x1b4e <_ZN6params10initParamsEP3Lcd+0x166>
    1abc:	d6 01       	movw	r26, r12
    1abe:	13 96       	adiw	r26, 0x03	; 3
    1ac0:	ec 91       	ld	r30, X
    1ac2:	f0 e0       	ldi	r31, 0x00	; 0
    1ac4:	ee 0f       	add	r30, r30
    1ac6:	ff 1f       	adc	r31, r31
    1ac8:	e0 58       	subi	r30, 0x80	; 128
    1aca:	fe 4f       	sbci	r31, 0xFE	; 254
    1acc:	3e c0       	rjmp	.+124    	; 0x1b4a <_ZN6params10initParamsEP3Lcd+0x162>
    1ace:	84 30       	cpi	r24, 0x04	; 4
    1ad0:	39 f1       	breq	.+78     	; 0x1b20 <_ZN6params10initParamsEP3Lcd+0x138>
    1ad2:	e8 f0       	brcs	.+58     	; 0x1b0e <_ZN6params10initParamsEP3Lcd+0x126>
    1ad4:	85 30       	cpi	r24, 0x05	; 5
    1ad6:	d9 f5       	brne	.+118    	; 0x1b4e <_ZN6params10initParamsEP3Lcd+0x166>
    1ad8:	d6 01       	movw	r26, r12
    1ada:	15 96       	adiw	r26, 0x05	; 5
    1adc:	ec 91       	ld	r30, X
    1ade:	f0 e0       	ldi	r31, 0x00	; 0
    1ae0:	ee 0f       	add	r30, r30
    1ae2:	ff 1f       	adc	r31, r31
    1ae4:	e4 59       	subi	r30, 0x94	; 148
    1ae6:	fe 4f       	sbci	r31, 0xFE	; 254
    1ae8:	30 c0       	rjmp	.+96     	; 0x1b4a <_ZN6params10initParamsEP3Lcd+0x162>
    1aea:	d6 01       	movw	r26, r12
    1aec:	12 96       	adiw	r26, 0x02	; 2
    1aee:	ec 91       	ld	r30, X
    1af0:	f0 e0       	ldi	r31, 0x00	; 0
    1af2:	ee 0f       	add	r30, r30
    1af4:	ff 1f       	adc	r31, r31
    1af6:	ea 58       	subi	r30, 0x8A	; 138
    1af8:	fe 4f       	sbci	r31, 0xFE	; 254
    1afa:	27 c0       	rjmp	.+78     	; 0x1b4a <_ZN6params10initParamsEP3Lcd+0x162>
    1afc:	d6 01       	movw	r26, r12
    1afe:	14 96       	adiw	r26, 0x04	; 4
    1b00:	ec 91       	ld	r30, X
    1b02:	f0 e0       	ldi	r31, 0x00	; 0
    1b04:	ee 0f       	add	r30, r30
    1b06:	ff 1f       	adc	r31, r31
    1b08:	e0 59       	subi	r30, 0x90	; 144
    1b0a:	fe 4f       	sbci	r31, 0xFE	; 254
    1b0c:	1e c0       	rjmp	.+60     	; 0x1b4a <_ZN6params10initParamsEP3Lcd+0x162>
    1b0e:	d6 01       	movw	r26, r12
    1b10:	17 96       	adiw	r26, 0x07	; 7
    1b12:	ec 91       	ld	r30, X
    1b14:	f0 e0       	ldi	r31, 0x00	; 0
    1b16:	ee 0f       	add	r30, r30
    1b18:	ff 1f       	adc	r31, r31
    1b1a:	ea 59       	subi	r30, 0x9A	; 154
    1b1c:	fe 4f       	sbci	r31, 0xFE	; 254
    1b1e:	15 c0       	rjmp	.+42     	; 0x1b4a <_ZN6params10initParamsEP3Lcd+0x162>
    1b20:	f6 01       	movw	r30, r12
    1b22:	80 85       	ldd	r24, Z+8	; 0x08
    1b24:	1f 92       	push	r1
    1b26:	8f 93       	push	r24
    1b28:	a0 e7       	ldi	r26, 0x70	; 112
    1b2a:	b2 e0       	ldi	r27, 0x02	; 2
    1b2c:	bf 93       	push	r27
    1b2e:	af 93       	push	r26
    1b30:	7f 92       	push	r7
    1b32:	6f 92       	push	r6
    1b34:	0e 94 f5 16 	call	0x2dea	; 0x2dea <sprintf>
    1b38:	0f 90       	pop	r0
    1b3a:	0f 90       	pop	r0
    1b3c:	0f 90       	pop	r0
    1b3e:	0f 90       	pop	r0
    1b40:	0f 90       	pop	r0
    1b42:	0f 90       	pop	r0
    1b44:	16 2d       	mov	r17, r6
    1b46:	57 2d       	mov	r21, r7
    1b48:	02 c0       	rjmp	.+4      	; 0x1b4e <_ZN6params10initParamsEP3Lcd+0x166>
    1b4a:	10 81       	ld	r17, Z
    1b4c:	51 81       	ldd	r21, Z+1	; 0x01
    1b4e:	f1 01       	movw	r30, r2
    1b50:	e0 80       	ld	r14, Z
    1b52:	f1 80       	ldd	r15, Z+1	; 0x01
    1b54:	02 81       	ldd	r16, Z+2	; 0x02
    1b56:	d2 01       	movw	r26, r4
    1b58:	2d 91       	ld	r18, X+
    1b5a:	3d 91       	ld	r19, X+
    1b5c:	4c 91       	ld	r20, X
    1b5e:	61 2f       	mov	r22, r17
    1b60:	75 2f       	mov	r23, r21
    1b62:	c4 01       	movw	r24, r8
    1b64:	59 8b       	std	Y+17, r21	; 0x11
    1b66:	05 dc       	rcall	.-2038   	; 0x1372 <_ZN3Lcd4putsEPKc9_pixColorS2_>
    1b68:	f5 01       	movw	r30, r10
    1b6a:	80 81       	ld	r24, Z
    1b6c:	8f 5f       	subi	r24, 0xFF	; 255
    1b6e:	80 83       	st	Z, r24
    1b70:	59 89       	ldd	r21, Y+17	; 0x11
    1b72:	69 cf       	rjmp	.-302    	; 0x1a46 <_ZN6params10initParamsEP3Lcd+0x5e>
    1b74:	1c 92       	st	X, r1
    1b76:	61 96       	adiw	r28, 0x11	; 17
    1b78:	0f b6       	in	r0, 0x3f	; 63
    1b7a:	f8 94       	cli
    1b7c:	de bf       	out	0x3e, r29	; 62
    1b7e:	0f be       	out	0x3f, r0	; 63
    1b80:	cd bf       	out	0x3d, r28	; 61
    1b82:	df 91       	pop	r29
    1b84:	cf 91       	pop	r28
    1b86:	1f 91       	pop	r17
    1b88:	0f 91       	pop	r16
    1b8a:	ff 90       	pop	r15
    1b8c:	ef 90       	pop	r14
    1b8e:	df 90       	pop	r13
    1b90:	cf 90       	pop	r12
    1b92:	bf 90       	pop	r11
    1b94:	af 90       	pop	r10
    1b96:	9f 90       	pop	r9
    1b98:	8f 90       	pop	r8
    1b9a:	7f 90       	pop	r7
    1b9c:	6f 90       	pop	r6
    1b9e:	5f 90       	pop	r5
    1ba0:	4f 90       	pop	r4
    1ba2:	3f 90       	pop	r3
    1ba4:	2f 90       	pop	r2
    1ba6:	08 95       	ret

00001ba8 <_ZN6paramsC1EP8Graphics>:
    1ba8:	0f 93       	push	r16
    1baa:	1f 93       	push	r17
    1bac:	cf 93       	push	r28
    1bae:	df 93       	push	r29
    1bb0:	ec 01       	movw	r28, r24
    1bb2:	8b 01       	movw	r16, r22
    1bb4:	8c ee       	ldi	r24, 0xEC	; 236
    1bb6:	92 e0       	ldi	r25, 0x02	; 2
    1bb8:	99 83       	std	Y+1, r25	; 0x01
    1bba:	88 83       	st	Y, r24
    1bbc:	81 e0       	ldi	r24, 0x01	; 1
    1bbe:	8a 83       	std	Y+2, r24	; 0x02
    1bc0:	82 e0       	ldi	r24, 0x02	; 2
    1bc2:	8b 83       	std	Y+3, r24	; 0x03
    1bc4:	1c 82       	std	Y+4, r1	; 0x04
    1bc6:	1d 82       	std	Y+5, r1	; 0x05
    1bc8:	1e 82       	std	Y+6, r1	; 0x06
    1bca:	1f 82       	std	Y+7, r1	; 0x07
    1bcc:	82 e1       	ldi	r24, 0x12	; 18
    1bce:	88 87       	std	Y+8, r24	; 0x08
    1bd0:	fe 01       	movw	r30, r28
    1bd2:	e4 5b       	subi	r30, 0xB4	; 180
    1bd4:	ff 4f       	sbci	r31, 0xFF	; 255
    1bd6:	10 82       	st	Z, r1
    1bd8:	34 96       	adiw	r30, 0x04	; 4
    1bda:	71 83       	std	Z+1, r23	; 0x01
    1bdc:	60 83       	st	Z, r22
    1bde:	38 96       	adiw	r30, 0x08	; 8
    1be0:	10 82       	st	Z, r1
    1be2:	31 96       	adiw	r30, 0x01	; 1
    1be4:	10 82       	st	Z, r1
    1be6:	31 96       	adiw	r30, 0x01	; 1
    1be8:	10 82       	st	Z, r1
    1bea:	38 97       	sbiw	r30, 0x08	; 8
    1bec:	8c ef       	ldi	r24, 0xFC	; 252
    1bee:	80 83       	st	Z, r24
    1bf0:	31 96       	adiw	r30, 0x01	; 1
    1bf2:	80 83       	st	Z, r24
    1bf4:	31 96       	adiw	r30, 0x01	; 1
    1bf6:	80 83       	st	Z, r24
    1bf8:	31 96       	adiw	r30, 0x01	; 1
    1bfa:	10 82       	st	Z, r1
    1bfc:	31 96       	adiw	r30, 0x01	; 1
    1bfe:	10 82       	st	Z, r1
    1c00:	31 96       	adiw	r30, 0x01	; 1
    1c02:	8c e4       	ldi	r24, 0x4C	; 76
    1c04:	80 83       	st	Z, r24
    1c06:	42 e4       	ldi	r20, 0x42	; 66
    1c08:	50 e0       	ldi	r21, 0x00	; 0
    1c0a:	64 e2       	ldi	r22, 0x24	; 36
    1c0c:	71 e0       	ldi	r23, 0x01	; 1
    1c0e:	ce 01       	movw	r24, r28
    1c10:	09 96       	adiw	r24, 0x09	; 9
    1c12:	df de       	rcall	.-578    	; 0x19d2 <_Z6memcpyPvPKvj>
    1c14:	b8 01       	movw	r22, r16
    1c16:	ce 01       	movw	r24, r28
    1c18:	df 91       	pop	r29
    1c1a:	cf 91       	pop	r28
    1c1c:	1f 91       	pop	r17
    1c1e:	0f 91       	pop	r16
    1c20:	e3 ce       	rjmp	.-570    	; 0x19e8 <_ZN6params10initParamsEP3Lcd>

00001c22 <_ZN6params7getStepEv>:
    1c22:	fc 01       	movw	r30, r24
    1c24:	82 81       	ldd	r24, Z+2	; 0x02
    1c26:	08 95       	ret

00001c28 <_ZN6params7getBandEv>:
    1c28:	fc 01       	movw	r30, r24
    1c2a:	83 81       	ldd	r24, Z+3	; 0x03
    1c2c:	08 95       	ret

00001c2e <_ZN6params6getVfoEv>:
    1c2e:	fc 01       	movw	r30, r24
    1c30:	84 81       	ldd	r24, Z+4	; 0x04
    1c32:	08 95       	ret

00001c34 <_ZN6params12getActiveVfoEv>:
    1c34:	fc 01       	movw	r30, r24
    1c36:	85 81       	ldd	r24, Z+5	; 0x05
    1c38:	08 95       	ret

00001c3a <_ZN6params7getModeEv>:
    1c3a:	fc 01       	movw	r30, r24
    1c3c:	86 81       	ldd	r24, Z+6	; 0x06
    1c3e:	08 95       	ret

00001c40 <_ZN6params7setModeE7_mode_t>:
    1c40:	fc 01       	movw	r30, r24
    1c42:	66 83       	std	Z+6, r22	; 0x06
    1c44:	08 95       	ret

00001c46 <_ZN6params12setActiveVfoE10vfo_actv_t>:
    1c46:	af 92       	push	r10
    1c48:	bf 92       	push	r11
    1c4a:	cf 92       	push	r12
    1c4c:	df 92       	push	r13
    1c4e:	ef 92       	push	r14
    1c50:	ff 92       	push	r15
    1c52:	0f 93       	push	r16
    1c54:	cf 93       	push	r28
    1c56:	df 93       	push	r29
    1c58:	ec 01       	movw	r28, r24
    1c5a:	6d 83       	std	Y+5, r22	; 0x05
    1c5c:	e6 2f       	mov	r30, r22
    1c5e:	f0 e0       	ldi	r31, 0x00	; 0
    1c60:	ee 0f       	add	r30, r30
    1c62:	ff 1f       	adc	r31, r31
    1c64:	e4 59       	subi	r30, 0x94	; 148
    1c66:	fe 4f       	sbci	r31, 0xFE	; 254
    1c68:	a0 80       	ld	r10, Z
    1c6a:	b1 80       	ldd	r11, Z+1	; 0x01
    1c6c:	de 01       	movw	r26, r28
    1c6e:	a7 5b       	subi	r26, 0xB7	; 183
    1c70:	bf 4f       	sbci	r27, 0xFF	; 255
    1c72:	fe 01       	movw	r30, r28
    1c74:	e9 5b       	subi	r30, 0xB9	; 185
    1c76:	ff 4f       	sbci	r31, 0xFF	; 255
    1c78:	6e 01       	movw	r12, r28
    1c7a:	80 e5       	ldi	r24, 0x50	; 80
    1c7c:	c8 0e       	add	r12, r24
    1c7e:	d1 1c       	adc	r13, r1
    1c80:	4c 91       	ld	r20, X
    1c82:	60 81       	ld	r22, Z
    1c84:	f6 01       	movw	r30, r12
    1c86:	80 81       	ld	r24, Z
    1c88:	91 81       	ldd	r25, Z+1	; 0x01
    1c8a:	b8 db       	rcall	.-2192   	; 0x13fc <_ZN3Lcd6gotoxyEhh>
    1c8c:	8d 81       	ldd	r24, Y+5	; 0x05
    1c8e:	81 11       	cpse	r24, r1
    1c90:	03 c0       	rjmp	.+6      	; 0x1c98 <_ZN6params12setActiveVfoE10vfo_actv_t+0x52>
    1c92:	20 e0       	ldi	r18, 0x00	; 0
    1c94:	3c ef       	ldi	r19, 0xFC	; 252
    1c96:	02 c0       	rjmp	.+4      	; 0x1c9c <_ZN6params12setActiveVfoE10vfo_actv_t+0x56>
    1c98:	2c ef       	ldi	r18, 0xFC	; 252
    1c9a:	30 e0       	ldi	r19, 0x00	; 0
    1c9c:	cb 5a       	subi	r28, 0xAB	; 171
    1c9e:	df 4f       	sbci	r29, 0xFF	; 255
    1ca0:	e8 80       	ld	r14, Y
    1ca2:	f9 80       	ldd	r15, Y+1	; 0x01
    1ca4:	0a 81       	ldd	r16, Y+2	; 0x02
    1ca6:	40 e0       	ldi	r20, 0x00	; 0
    1ca8:	b5 01       	movw	r22, r10
    1caa:	f6 01       	movw	r30, r12
    1cac:	80 81       	ld	r24, Z
    1cae:	91 81       	ldd	r25, Z+1	; 0x01
    1cb0:	60 db       	rcall	.-2368   	; 0x1372 <_ZN3Lcd4putsEPKc9_pixColorS2_>
    1cb2:	df 91       	pop	r29
    1cb4:	cf 91       	pop	r28
    1cb6:	0f 91       	pop	r16
    1cb8:	ff 90       	pop	r15
    1cba:	ef 90       	pop	r14
    1cbc:	df 90       	pop	r13
    1cbe:	cf 90       	pop	r12
    1cc0:	bf 90       	pop	r11
    1cc2:	af 90       	pop	r10
    1cc4:	08 95       	ret

00001cc6 <_ZN6params6updateEP7EncoderP2SwP3Lcd>:
    1cc6:	2f 92       	push	r2
    1cc8:	3f 92       	push	r3
    1cca:	4f 92       	push	r4
    1ccc:	5f 92       	push	r5
    1cce:	6f 92       	push	r6
    1cd0:	7f 92       	push	r7
    1cd2:	8f 92       	push	r8
    1cd4:	9f 92       	push	r9
    1cd6:	af 92       	push	r10
    1cd8:	bf 92       	push	r11
    1cda:	cf 92       	push	r12
    1cdc:	df 92       	push	r13
    1cde:	ef 92       	push	r14
    1ce0:	ff 92       	push	r15
    1ce2:	0f 93       	push	r16
    1ce4:	1f 93       	push	r17
    1ce6:	cf 93       	push	r28
    1ce8:	df 93       	push	r29
    1cea:	cd b7       	in	r28, 0x3d	; 61
    1cec:	de b7       	in	r29, 0x3e	; 62
    1cee:	61 97       	sbiw	r28, 0x11	; 17
    1cf0:	0f b6       	in	r0, 0x3f	; 63
    1cf2:	f8 94       	cli
    1cf4:	de bf       	out	0x3e, r29	; 62
    1cf6:	0f be       	out	0x3f, r0	; 63
    1cf8:	cd bf       	out	0x3d, r28	; 61
    1cfa:	6c 01       	movw	r12, r24
    1cfc:	5b 01       	movw	r10, r22
    1cfe:	3a 01       	movw	r6, r20
    1d00:	49 01       	movw	r8, r18
    1d02:	1c 01       	movw	r2, r24
    1d04:	88 e5       	ldi	r24, 0x58	; 88
    1d06:	28 0e       	add	r2, r24
    1d08:	31 1c       	adc	r3, r1
    1d0a:	8c ef       	ldi	r24, 0xFC	; 252
    1d0c:	d1 01       	movw	r26, r2
    1d0e:	8c 93       	st	X, r24
    1d10:	f6 01       	movw	r30, r12
    1d12:	e7 5a       	subi	r30, 0xA7	; 167
    1d14:	ff 4f       	sbci	r31, 0xFF	; 255
    1d16:	10 82       	st	Z, r1
    1d18:	31 96       	adiw	r30, 0x01	; 1
    1d1a:	10 82       	st	Z, r1
    1d1c:	26 01       	movw	r4, r12
    1d1e:	bc e4       	ldi	r27, 0x4C	; 76
    1d20:	4b 0e       	add	r4, r27
    1d22:	51 1c       	adc	r5, r1
    1d24:	f2 01       	movw	r30, r4
    1d26:	80 81       	ld	r24, Z
    1d28:	88 23       	and	r24, r24
    1d2a:	89 f1       	breq	.+98     	; 0x1d8e <_ZN6params6updateEP7EncoderP2SwP3Lcd+0xc8>
    1d2c:	10 82       	st	Z, r1
    1d2e:	76 01       	movw	r14, r12
    1d30:	fb e4       	ldi	r31, 0x4B	; 75
    1d32:	ef 0e       	add	r14, r31
    1d34:	f1 1c       	adc	r15, r1
    1d36:	d7 01       	movw	r26, r14
    1d38:	8c 91       	ld	r24, X
    1d3a:	1b e0       	ldi	r17, 0x0B	; 11
    1d3c:	f6 01       	movw	r30, r12
    1d3e:	18 9f       	mul	r17, r24
    1d40:	e0 0d       	add	r30, r0
    1d42:	f1 1d       	adc	r31, r1
    1d44:	11 24       	eor	r1, r1
    1d46:	44 85       	ldd	r20, Z+12	; 0x0c
    1d48:	62 85       	ldd	r22, Z+10	; 0x0a
    1d4a:	c9 01       	movw	r24, r18
    1d4c:	57 db       	rcall	.-2386   	; 0x13fc <_ZN3Lcd6gotoxyEhh>
    1d4e:	f6 01       	movw	r30, r12
    1d50:	eb 5a       	subi	r30, 0xAB	; 171
    1d52:	ff 4f       	sbci	r31, 0xFF	; 255
    1d54:	80 81       	ld	r24, Z
    1d56:	91 81       	ldd	r25, Z+1	; 0x01
    1d58:	a2 81       	ldd	r26, Z+2	; 0x02
    1d5a:	33 97       	sbiw	r30, 0x03	; 3
    1d5c:	20 81       	ld	r18, Z
    1d5e:	31 81       	ldd	r19, Z+1	; 0x01
    1d60:	42 81       	ldd	r20, Z+2	; 0x02
    1d62:	f7 01       	movw	r30, r14
    1d64:	50 81       	ld	r21, Z
    1d66:	f6 01       	movw	r30, r12
    1d68:	15 9f       	mul	r17, r21
    1d6a:	e0 0d       	add	r30, r0
    1d6c:	f1 1d       	adc	r31, r1
    1d6e:	11 24       	eor	r1, r1
    1d70:	66 85       	ldd	r22, Z+14	; 0x0e
    1d72:	77 85       	ldd	r23, Z+15	; 0x0f
    1d74:	7c 01       	movw	r14, r24
    1d76:	0a 2f       	mov	r16, r26
    1d78:	c4 01       	movw	r24, r8
    1d7a:	fb da       	rcall	.-2570   	; 0x1372 <_ZN3Lcd4putsEPKc9_pixColorS2_>
    1d7c:	81 e0       	ldi	r24, 0x01	; 1
    1d7e:	f6 01       	movw	r30, r12
    1d80:	e1 5b       	subi	r30, 0xB1	; 177
    1d82:	ff 4f       	sbci	r31, 0xFF	; 255
    1d84:	80 83       	st	Z, r24
    1d86:	64 e0       	ldi	r22, 0x04	; 4
    1d88:	c5 01       	movw	r24, r10
    1d8a:	0e 94 62 04 	call	0x8c4	; 0x8c4 <_ZN7Encoder12setEventRateEh>
    1d8e:	c3 01       	movw	r24, r6
    1d90:	71 d2       	rcall	.+1250   	; 0x2274 <_ZN2Sw8hasEventEv>
    1d92:	88 23       	and	r24, r24
    1d94:	09 f4       	brne	.+2      	; 0x1d98 <_ZN6params6updateEP7EncoderP2SwP3Lcd+0xd2>
    1d96:	79 c0       	rjmp	.+242    	; 0x1e8a <_ZN6params6updateEP7EncoderP2SwP3Lcd+0x1c4>
    1d98:	c3 01       	movw	r24, r6
    1d9a:	74 d2       	rcall	.+1256   	; 0x2284 <_ZN2Sw8getEventEv>
    1d9c:	82 30       	cpi	r24, 0x02	; 2
    1d9e:	79 f4       	brne	.+30     	; 0x1dbe <_ZN6params6updateEP7EncoderP2SwP3Lcd+0xf8>
    1da0:	c3 01       	movw	r24, r6
    1da2:	73 d2       	rcall	.+1254   	; 0x228a <_ZN2Sw10clearEventEv>
    1da4:	68 ec       	ldi	r22, 0xC8	; 200
    1da6:	70 e0       	ldi	r23, 0x00	; 0
    1da8:	c6 01       	movw	r24, r12
    1daa:	0e 94 4e 05 	call	0xa9c	; 0xa9c <_ZN5Clock15registerOneshotEP8Callbackj>
    1dae:	f6 01       	movw	r30, r12
    1db0:	e3 5b       	subi	r30, 0xB3	; 179
    1db2:	ff 4f       	sbci	r31, 0xFF	; 255
    1db4:	91 83       	std	Z+1, r25	; 0x01
    1db6:	80 83       	st	Z, r24
    1db8:	d2 01       	movw	r26, r4
    1dba:	1c 92       	st	X, r1
    1dbc:	66 c0       	rjmp	.+204    	; 0x1e8a <_ZN6params6updateEP7EncoderP2SwP3Lcd+0x1c4>
    1dbe:	c3 01       	movw	r24, r6
    1dc0:	61 d2       	rcall	.+1218   	; 0x2284 <_ZN2Sw8getEventEv>
    1dc2:	81 30       	cpi	r24, 0x01	; 1
    1dc4:	09 f0       	breq	.+2      	; 0x1dc8 <_ZN6params6updateEP7EncoderP2SwP3Lcd+0x102>
    1dc6:	61 c0       	rjmp	.+194    	; 0x1e8a <_ZN6params6updateEP7EncoderP2SwP3Lcd+0x1c4>
    1dc8:	c3 01       	movw	r24, r6
    1dca:	5f d2       	rcall	.+1214   	; 0x228a <_ZN2Sw10clearEventEv>
    1dcc:	f6 01       	movw	r30, r12
    1dce:	e1 5b       	subi	r30, 0xB1	; 177
    1dd0:	ff 4f       	sbci	r31, 0xFF	; 255
    1dd2:	80 81       	ld	r24, Z
    1dd4:	88 23       	and	r24, r24
    1dd6:	21 f0       	breq	.+8      	; 0x1de0 <_ZN6params6updateEP7EncoderP2SwP3Lcd+0x11a>
    1dd8:	10 82       	st	Z, r1
    1dda:	f6 01       	movw	r30, r12
    1ddc:	16 82       	std	Z+6, r1	; 0x06
    1dde:	73 c1       	rjmp	.+742    	; 0x20c6 <_ZN6params6updateEP7EncoderP2SwP3Lcd+0x400>
    1de0:	f6 01       	movw	r30, r12
    1de2:	e3 5b       	subi	r30, 0xB3	; 179
    1de4:	ff 4f       	sbci	r31, 0xFF	; 255
    1de6:	80 81       	ld	r24, Z
    1de8:	91 81       	ldd	r25, Z+1	; 0x01
    1dea:	0e 94 72 05 	call	0xae4	; 0xae4 <_ZN5Clock13cancelOneshotEi>
    1dee:	36 01       	movw	r6, r12
    1df0:	fb e4       	ldi	r31, 0x4B	; 75
    1df2:	6f 0e       	add	r6, r31
    1df4:	71 1c       	adc	r7, r1
    1df6:	d3 01       	movw	r26, r6
    1df8:	8c 91       	ld	r24, X
    1dfa:	1b e0       	ldi	r17, 0x0B	; 11
    1dfc:	f6 01       	movw	r30, r12
    1dfe:	18 9f       	mul	r17, r24
    1e00:	e0 0d       	add	r30, r0
    1e02:	f1 1d       	adc	r31, r1
    1e04:	11 24       	eor	r1, r1
    1e06:	44 85       	ldd	r20, Z+12	; 0x0c
    1e08:	62 85       	ldd	r22, Z+10	; 0x0a
    1e0a:	c4 01       	movw	r24, r8
    1e0c:	f7 da       	rcall	.-2578   	; 0x13fc <_ZN3Lcd6gotoxyEhh>
    1e0e:	26 01       	movw	r4, r12
    1e10:	b5 e5       	ldi	r27, 0x55	; 85
    1e12:	4b 0e       	add	r4, r27
    1e14:	51 1c       	adc	r5, r1
    1e16:	f2 01       	movw	r30, r4
    1e18:	e0 80       	ld	r14, Z
    1e1a:	f1 80       	ldd	r15, Z+1	; 0x01
    1e1c:	02 81       	ldd	r16, Z+2	; 0x02
    1e1e:	33 97       	sbiw	r30, 0x03	; 3
    1e20:	20 81       	ld	r18, Z
    1e22:	31 81       	ldd	r19, Z+1	; 0x01
    1e24:	42 81       	ldd	r20, Z+2	; 0x02
    1e26:	d3 01       	movw	r26, r6
    1e28:	8c 91       	ld	r24, X
    1e2a:	f6 01       	movw	r30, r12
    1e2c:	18 9f       	mul	r17, r24
    1e2e:	e0 0d       	add	r30, r0
    1e30:	f1 1d       	adc	r31, r1
    1e32:	11 24       	eor	r1, r1
    1e34:	66 85       	ldd	r22, Z+14	; 0x0e
    1e36:	77 85       	ldd	r23, Z+15	; 0x0f
    1e38:	c4 01       	movw	r24, r8
    1e3a:	9b da       	rcall	.-2762   	; 0x1372 <_ZN3Lcd4putsEPKc9_pixColorS2_>
    1e3c:	f3 01       	movw	r30, r6
    1e3e:	80 81       	ld	r24, Z
    1e40:	8f 5f       	subi	r24, 0xFF	; 255
    1e42:	86 30       	cpi	r24, 0x06	; 6
    1e44:	11 f0       	breq	.+4      	; 0x1e4a <_ZN6params6updateEP7EncoderP2SwP3Lcd+0x184>
    1e46:	80 83       	st	Z, r24
    1e48:	01 c0       	rjmp	.+2      	; 0x1e4c <_ZN6params6updateEP7EncoderP2SwP3Lcd+0x186>
    1e4a:	10 82       	st	Z, r1
    1e4c:	f3 01       	movw	r30, r6
    1e4e:	80 81       	ld	r24, Z
    1e50:	1b e0       	ldi	r17, 0x0B	; 11
    1e52:	f6 01       	movw	r30, r12
    1e54:	18 9f       	mul	r17, r24
    1e56:	e0 0d       	add	r30, r0
    1e58:	f1 1d       	adc	r31, r1
    1e5a:	11 24       	eor	r1, r1
    1e5c:	44 85       	ldd	r20, Z+12	; 0x0c
    1e5e:	62 85       	ldd	r22, Z+10	; 0x0a
    1e60:	c4 01       	movw	r24, r8
    1e62:	cc da       	rcall	.-2664   	; 0x13fc <_ZN3Lcd6gotoxyEhh>
    1e64:	d2 01       	movw	r26, r4
    1e66:	ed 90       	ld	r14, X+
    1e68:	fd 90       	ld	r15, X+
    1e6a:	0c 91       	ld	r16, X
    1e6c:	f1 01       	movw	r30, r2
    1e6e:	20 81       	ld	r18, Z
    1e70:	31 81       	ldd	r19, Z+1	; 0x01
    1e72:	42 81       	ldd	r20, Z+2	; 0x02
    1e74:	d3 01       	movw	r26, r6
    1e76:	8c 91       	ld	r24, X
    1e78:	f6 01       	movw	r30, r12
    1e7a:	18 9f       	mul	r17, r24
    1e7c:	e0 0d       	add	r30, r0
    1e7e:	f1 1d       	adc	r31, r1
    1e80:	11 24       	eor	r1, r1
    1e82:	66 85       	ldd	r22, Z+14	; 0x0e
    1e84:	77 85       	ldd	r23, Z+15	; 0x0f
    1e86:	c4 01       	movw	r24, r8
    1e88:	74 da       	rcall	.-2840   	; 0x1372 <_ZN3Lcd4putsEPKc9_pixColorS2_>
    1e8a:	c5 01       	movw	r24, r10
    1e8c:	0e 94 48 04 	call	0x890	; 0x890 <_ZN7Encoder8hasEventEv>
    1e90:	88 23       	and	r24, r24
    1e92:	09 f4       	brne	.+2      	; 0x1e96 <_ZN6params6updateEP7EncoderP2SwP3Lcd+0x1d0>
    1e94:	18 c1       	rjmp	.+560    	; 0x20c6 <_ZN6params6updateEP7EncoderP2SwP3Lcd+0x400>
    1e96:	36 01       	movw	r6, r12
    1e98:	bb e4       	ldi	r27, 0x4B	; 75
    1e9a:	6b 0e       	add	r6, r27
    1e9c:	71 1c       	adc	r7, r1
    1e9e:	f3 01       	movw	r30, r6
    1ea0:	80 81       	ld	r24, Z
    1ea2:	82 30       	cpi	r24, 0x02	; 2
    1ea4:	09 f4       	brne	.+2      	; 0x1ea8 <_ZN6params6updateEP7EncoderP2SwP3Lcd+0x1e2>
    1ea6:	5e c0       	rjmp	.+188    	; 0x1f64 <_ZN6params6updateEP7EncoderP2SwP3Lcd+0x29e>
    1ea8:	28 f4       	brcc	.+10     	; 0x1eb4 <_ZN6params6updateEP7EncoderP2SwP3Lcd+0x1ee>
    1eaa:	88 23       	and	r24, r24
    1eac:	61 f0       	breq	.+24     	; 0x1ec6 <_ZN6params6updateEP7EncoderP2SwP3Lcd+0x200>
    1eae:	81 30       	cpi	r24, 0x01	; 1
    1eb0:	a1 f1       	breq	.+104    	; 0x1f1a <_ZN6params6updateEP7EncoderP2SwP3Lcd+0x254>
    1eb2:	e9 c0       	rjmp	.+466    	; 0x2086 <_ZN6params6updateEP7EncoderP2SwP3Lcd+0x3c0>
    1eb4:	84 30       	cpi	r24, 0x04	; 4
    1eb6:	09 f4       	brne	.+2      	; 0x1eba <_ZN6params6updateEP7EncoderP2SwP3Lcd+0x1f4>
    1eb8:	99 c0       	rjmp	.+306    	; 0x1fec <_ZN6params6updateEP7EncoderP2SwP3Lcd+0x326>
    1eba:	08 f4       	brcc	.+2      	; 0x1ebe <_ZN6params6updateEP7EncoderP2SwP3Lcd+0x1f8>
    1ebc:	75 c0       	rjmp	.+234    	; 0x1fa8 <_ZN6params6updateEP7EncoderP2SwP3Lcd+0x2e2>
    1ebe:	85 30       	cpi	r24, 0x05	; 5
    1ec0:	09 f4       	brne	.+2      	; 0x1ec4 <_ZN6params6updateEP7EncoderP2SwP3Lcd+0x1fe>
    1ec2:	c7 c0       	rjmp	.+398    	; 0x2052 <_ZN6params6updateEP7EncoderP2SwP3Lcd+0x38c>
    1ec4:	e0 c0       	rjmp	.+448    	; 0x2086 <_ZN6params6updateEP7EncoderP2SwP3Lcd+0x3c0>
    1ec6:	c5 01       	movw	r24, r10
    1ec8:	0e 94 50 04 	call	0x8a0	; 0x8a0 <_ZN7Encoder8getEventEv>
    1ecc:	81 30       	cpi	r24, 0x01	; 1
    1ece:	51 f4       	brne	.+20     	; 0x1ee4 <_ZN6params6updateEP7EncoderP2SwP3Lcd+0x21e>
    1ed0:	d6 01       	movw	r26, r12
    1ed2:	12 96       	adiw	r26, 0x02	; 2
    1ed4:	8c 91       	ld	r24, X
    1ed6:	12 97       	sbiw	r26, 0x02	; 2
    1ed8:	8f 5f       	subi	r24, 0xFF	; 255
    1eda:	85 30       	cpi	r24, 0x05	; 5
    1edc:	79 f4       	brne	.+30     	; 0x1efc <_ZN6params6updateEP7EncoderP2SwP3Lcd+0x236>
    1ede:	f6 01       	movw	r30, r12
    1ee0:	12 82       	std	Z+2, r1	; 0x02
    1ee2:	12 c0       	rjmp	.+36     	; 0x1f08 <_ZN6params6updateEP7EncoderP2SwP3Lcd+0x242>
    1ee4:	c5 01       	movw	r24, r10
    1ee6:	0e 94 50 04 	call	0x8a0	; 0x8a0 <_ZN7Encoder8getEventEv>
    1eea:	82 30       	cpi	r24, 0x02	; 2
    1eec:	69 f4       	brne	.+26     	; 0x1f08 <_ZN6params6updateEP7EncoderP2SwP3Lcd+0x242>
    1eee:	d6 01       	movw	r26, r12
    1ef0:	12 96       	adiw	r26, 0x02	; 2
    1ef2:	8c 91       	ld	r24, X
    1ef4:	12 97       	sbiw	r26, 0x02	; 2
    1ef6:	81 11       	cpse	r24, r1
    1ef8:	04 c0       	rjmp	.+8      	; 0x1f02 <_ZN6params6updateEP7EncoderP2SwP3Lcd+0x23c>
    1efa:	84 e0       	ldi	r24, 0x04	; 4
    1efc:	12 96       	adiw	r26, 0x02	; 2
    1efe:	8c 93       	st	X, r24
    1f00:	03 c0       	rjmp	.+6      	; 0x1f08 <_ZN6params6updateEP7EncoderP2SwP3Lcd+0x242>
    1f02:	81 50       	subi	r24, 0x01	; 1
    1f04:	f6 01       	movw	r30, r12
    1f06:	82 83       	std	Z+2, r24	; 0x02
    1f08:	d6 01       	movw	r26, r12
    1f0a:	12 96       	adiw	r26, 0x02	; 2
    1f0c:	ec 91       	ld	r30, X
    1f0e:	f0 e0       	ldi	r31, 0x00	; 0
    1f10:	ee 0f       	add	r30, r30
    1f12:	ff 1f       	adc	r31, r31
    1f14:	ea 58       	subi	r30, 0x8A	; 138
    1f16:	fe 4f       	sbci	r31, 0xFE	; 254
    1f18:	22 c0       	rjmp	.+68     	; 0x1f5e <_ZN6params6updateEP7EncoderP2SwP3Lcd+0x298>
    1f1a:	c5 01       	movw	r24, r10
    1f1c:	0e 94 50 04 	call	0x8a0	; 0x8a0 <_ZN7Encoder8getEventEv>
    1f20:	81 30       	cpi	r24, 0x01	; 1
    1f22:	39 f4       	brne	.+14     	; 0x1f32 <_ZN6params6updateEP7EncoderP2SwP3Lcd+0x26c>
    1f24:	f6 01       	movw	r30, r12
    1f26:	83 81       	ldd	r24, Z+3	; 0x03
    1f28:	8f 5f       	subi	r24, 0xFF	; 255
    1f2a:	89 30       	cpi	r24, 0x09	; 9
    1f2c:	61 f4       	brne	.+24     	; 0x1f46 <_ZN6params6updateEP7EncoderP2SwP3Lcd+0x280>
    1f2e:	13 82       	std	Z+3, r1	; 0x03
    1f30:	0e c0       	rjmp	.+28     	; 0x1f4e <_ZN6params6updateEP7EncoderP2SwP3Lcd+0x288>
    1f32:	c5 01       	movw	r24, r10
    1f34:	0e 94 50 04 	call	0x8a0	; 0x8a0 <_ZN7Encoder8getEventEv>
    1f38:	82 30       	cpi	r24, 0x02	; 2
    1f3a:	49 f4       	brne	.+18     	; 0x1f4e <_ZN6params6updateEP7EncoderP2SwP3Lcd+0x288>
    1f3c:	f6 01       	movw	r30, r12
    1f3e:	83 81       	ldd	r24, Z+3	; 0x03
    1f40:	81 11       	cpse	r24, r1
    1f42:	03 c0       	rjmp	.+6      	; 0x1f4a <_ZN6params6updateEP7EncoderP2SwP3Lcd+0x284>
    1f44:	88 e0       	ldi	r24, 0x08	; 8
    1f46:	83 83       	std	Z+3, r24	; 0x03
    1f48:	02 c0       	rjmp	.+4      	; 0x1f4e <_ZN6params6updateEP7EncoderP2SwP3Lcd+0x288>
    1f4a:	81 50       	subi	r24, 0x01	; 1
    1f4c:	83 83       	std	Z+3, r24	; 0x03
    1f4e:	d6 01       	movw	r26, r12
    1f50:	13 96       	adiw	r26, 0x03	; 3
    1f52:	ec 91       	ld	r30, X
    1f54:	f0 e0       	ldi	r31, 0x00	; 0
    1f56:	ee 0f       	add	r30, r30
    1f58:	ff 1f       	adc	r31, r31
    1f5a:	e0 58       	subi	r30, 0x80	; 128
    1f5c:	fe 4f       	sbci	r31, 0xFE	; 254
    1f5e:	50 80       	ld	r5, Z
    1f60:	71 81       	ldd	r23, Z+1	; 0x01
    1f62:	93 c0       	rjmp	.+294    	; 0x208a <_ZN6params6updateEP7EncoderP2SwP3Lcd+0x3c4>
    1f64:	c5 01       	movw	r24, r10
    1f66:	0e 94 50 04 	call	0x8a0	; 0x8a0 <_ZN7Encoder8getEventEv>
    1f6a:	81 30       	cpi	r24, 0x01	; 1
    1f6c:	39 f4       	brne	.+14     	; 0x1f7c <_ZN6params6updateEP7EncoderP2SwP3Lcd+0x2b6>
    1f6e:	f6 01       	movw	r30, r12
    1f70:	84 81       	ldd	r24, Z+4	; 0x04
    1f72:	8f 5f       	subi	r24, 0xFF	; 255
    1f74:	83 30       	cpi	r24, 0x03	; 3
    1f76:	59 f4       	brne	.+22     	; 0x1f8e <_ZN6params6updateEP7EncoderP2SwP3Lcd+0x2c8>
    1f78:	14 82       	std	Z+4, r1	; 0x04
    1f7a:	0d c0       	rjmp	.+26     	; 0x1f96 <_ZN6params6updateEP7EncoderP2SwP3Lcd+0x2d0>
    1f7c:	c5 01       	movw	r24, r10
    1f7e:	0e 94 50 04 	call	0x8a0	; 0x8a0 <_ZN7Encoder8getEventEv>
    1f82:	82 30       	cpi	r24, 0x02	; 2
    1f84:	41 f4       	brne	.+16     	; 0x1f96 <_ZN6params6updateEP7EncoderP2SwP3Lcd+0x2d0>
    1f86:	f6 01       	movw	r30, r12
    1f88:	94 81       	ldd	r25, Z+4	; 0x04
    1f8a:	91 11       	cpse	r25, r1
    1f8c:	02 c0       	rjmp	.+4      	; 0x1f92 <_ZN6params6updateEP7EncoderP2SwP3Lcd+0x2cc>
    1f8e:	84 83       	std	Z+4, r24	; 0x04
    1f90:	02 c0       	rjmp	.+4      	; 0x1f96 <_ZN6params6updateEP7EncoderP2SwP3Lcd+0x2d0>
    1f92:	91 50       	subi	r25, 0x01	; 1
    1f94:	94 83       	std	Z+4, r25	; 0x04
    1f96:	d6 01       	movw	r26, r12
    1f98:	14 96       	adiw	r26, 0x04	; 4
    1f9a:	ec 91       	ld	r30, X
    1f9c:	f0 e0       	ldi	r31, 0x00	; 0
    1f9e:	ee 0f       	add	r30, r30
    1fa0:	ff 1f       	adc	r31, r31
    1fa2:	e0 59       	subi	r30, 0x90	; 144
    1fa4:	fe 4f       	sbci	r31, 0xFE	; 254
    1fa6:	db cf       	rjmp	.-74     	; 0x1f5e <_ZN6params6updateEP7EncoderP2SwP3Lcd+0x298>
    1fa8:	c5 01       	movw	r24, r10
    1faa:	0e 94 50 04 	call	0x8a0	; 0x8a0 <_ZN7Encoder8getEventEv>
    1fae:	81 30       	cpi	r24, 0x01	; 1
    1fb0:	39 f4       	brne	.+14     	; 0x1fc0 <_ZN6params6updateEP7EncoderP2SwP3Lcd+0x2fa>
    1fb2:	f6 01       	movw	r30, r12
    1fb4:	87 81       	ldd	r24, Z+7	; 0x07
    1fb6:	8f 5f       	subi	r24, 0xFF	; 255
    1fb8:	83 30       	cpi	r24, 0x03	; 3
    1fba:	59 f4       	brne	.+22     	; 0x1fd2 <_ZN6params6updateEP7EncoderP2SwP3Lcd+0x30c>
    1fbc:	17 82       	std	Z+7, r1	; 0x07
    1fbe:	0d c0       	rjmp	.+26     	; 0x1fda <_ZN6params6updateEP7EncoderP2SwP3Lcd+0x314>
    1fc0:	c5 01       	movw	r24, r10
    1fc2:	0e 94 50 04 	call	0x8a0	; 0x8a0 <_ZN7Encoder8getEventEv>
    1fc6:	82 30       	cpi	r24, 0x02	; 2
    1fc8:	41 f4       	brne	.+16     	; 0x1fda <_ZN6params6updateEP7EncoderP2SwP3Lcd+0x314>
    1fca:	f6 01       	movw	r30, r12
    1fcc:	97 81       	ldd	r25, Z+7	; 0x07
    1fce:	91 11       	cpse	r25, r1
    1fd0:	02 c0       	rjmp	.+4      	; 0x1fd6 <_ZN6params6updateEP7EncoderP2SwP3Lcd+0x310>
    1fd2:	87 83       	std	Z+7, r24	; 0x07
    1fd4:	02 c0       	rjmp	.+4      	; 0x1fda <_ZN6params6updateEP7EncoderP2SwP3Lcd+0x314>
    1fd6:	91 50       	subi	r25, 0x01	; 1
    1fd8:	97 83       	std	Z+7, r25	; 0x07
    1fda:	d6 01       	movw	r26, r12
    1fdc:	17 96       	adiw	r26, 0x07	; 7
    1fde:	ec 91       	ld	r30, X
    1fe0:	f0 e0       	ldi	r31, 0x00	; 0
    1fe2:	ee 0f       	add	r30, r30
    1fe4:	ff 1f       	adc	r31, r31
    1fe6:	ea 59       	subi	r30, 0x9A	; 154
    1fe8:	fe 4f       	sbci	r31, 0xFE	; 254
    1fea:	b9 cf       	rjmp	.-142    	; 0x1f5e <_ZN6params6updateEP7EncoderP2SwP3Lcd+0x298>
    1fec:	c5 01       	movw	r24, r10
    1fee:	0e 94 50 04 	call	0x8a0	; 0x8a0 <_ZN7Encoder8getEventEv>
    1ff2:	81 30       	cpi	r24, 0x01	; 1
    1ff4:	39 f4       	brne	.+14     	; 0x2004 <_ZN6params6updateEP7EncoderP2SwP3Lcd+0x33e>
    1ff6:	f6 01       	movw	r30, r12
    1ff8:	80 85       	ldd	r24, Z+8	; 0x08
    1ffa:	8f 5f       	subi	r24, 0xFF	; 255
    1ffc:	8a 31       	cpi	r24, 0x1A	; 26
    1ffe:	60 f0       	brcs	.+24     	; 0x2018 <_ZN6params6updateEP7EncoderP2SwP3Lcd+0x352>
    2000:	89 e1       	ldi	r24, 0x19	; 25
    2002:	0d c0       	rjmp	.+26     	; 0x201e <_ZN6params6updateEP7EncoderP2SwP3Lcd+0x358>
    2004:	c5 01       	movw	r24, r10
    2006:	0e 94 50 04 	call	0x8a0	; 0x8a0 <_ZN7Encoder8getEventEv>
    200a:	82 30       	cpi	r24, 0x02	; 2
    200c:	59 f4       	brne	.+22     	; 0x2024 <_ZN6params6updateEP7EncoderP2SwP3Lcd+0x35e>
    200e:	f6 01       	movw	r30, r12
    2010:	80 85       	ldd	r24, Z+8	; 0x08
    2012:	81 50       	subi	r24, 0x01	; 1
    2014:	85 30       	cpi	r24, 0x05	; 5
    2016:	10 f0       	brcs	.+4      	; 0x201c <_ZN6params6updateEP7EncoderP2SwP3Lcd+0x356>
    2018:	80 87       	std	Z+8, r24	; 0x08
    201a:	04 c0       	rjmp	.+8      	; 0x2024 <_ZN6params6updateEP7EncoderP2SwP3Lcd+0x35e>
    201c:	85 e0       	ldi	r24, 0x05	; 5
    201e:	d6 01       	movw	r26, r12
    2020:	18 96       	adiw	r26, 0x08	; 8
    2022:	8c 93       	st	X, r24
    2024:	f6 01       	movw	r30, r12
    2026:	80 85       	ldd	r24, Z+8	; 0x08
    2028:	1f 92       	push	r1
    202a:	8f 93       	push	r24
    202c:	83 e7       	ldi	r24, 0x73	; 115
    202e:	92 e0       	ldi	r25, 0x02	; 2
    2030:	9f 93       	push	r25
    2032:	8f 93       	push	r24
    2034:	8e 01       	movw	r16, r28
    2036:	0f 5f       	subi	r16, 0xFF	; 255
    2038:	1f 4f       	sbci	r17, 0xFF	; 255
    203a:	1f 93       	push	r17
    203c:	0f 93       	push	r16
    203e:	d5 d6       	rcall	.+3498   	; 0x2dea <sprintf>
    2040:	0f 90       	pop	r0
    2042:	0f 90       	pop	r0
    2044:	0f 90       	pop	r0
    2046:	0f 90       	pop	r0
    2048:	0f 90       	pop	r0
    204a:	0f 90       	pop	r0
    204c:	50 2e       	mov	r5, r16
    204e:	71 2f       	mov	r23, r17
    2050:	1c c0       	rjmp	.+56     	; 0x208a <_ZN6params6updateEP7EncoderP2SwP3Lcd+0x3c4>
    2052:	c5 01       	movw	r24, r10
    2054:	0e 94 50 04 	call	0x8a0	; 0x8a0 <_ZN7Encoder8getEventEv>
    2058:	88 23       	and	r24, r24
    205a:	61 f0       	breq	.+24     	; 0x2074 <_ZN6params6updateEP7EncoderP2SwP3Lcd+0x3ae>
    205c:	d6 01       	movw	r26, r12
    205e:	15 96       	adiw	r26, 0x05	; 5
    2060:	8c 91       	ld	r24, X
    2062:	15 97       	sbiw	r26, 0x05	; 5
    2064:	81 11       	cpse	r24, r1
    2066:	04 c0       	rjmp	.+8      	; 0x2070 <_ZN6params6updateEP7EncoderP2SwP3Lcd+0x3aa>
    2068:	81 e0       	ldi	r24, 0x01	; 1
    206a:	15 96       	adiw	r26, 0x05	; 5
    206c:	8c 93       	st	X, r24
    206e:	02 c0       	rjmp	.+4      	; 0x2074 <_ZN6params6updateEP7EncoderP2SwP3Lcd+0x3ae>
    2070:	f6 01       	movw	r30, r12
    2072:	15 82       	std	Z+5, r1	; 0x05
    2074:	d6 01       	movw	r26, r12
    2076:	15 96       	adiw	r26, 0x05	; 5
    2078:	ec 91       	ld	r30, X
    207a:	f0 e0       	ldi	r31, 0x00	; 0
    207c:	ee 0f       	add	r30, r30
    207e:	ff 1f       	adc	r31, r31
    2080:	e4 59       	subi	r30, 0x94	; 148
    2082:	fe 4f       	sbci	r31, 0xFE	; 254
    2084:	6c cf       	rjmp	.-296    	; 0x1f5e <_ZN6params6updateEP7EncoderP2SwP3Lcd+0x298>
    2086:	51 2c       	mov	r5, r1
    2088:	70 e0       	ldi	r23, 0x00	; 0
    208a:	c5 01       	movw	r24, r10
    208c:	79 8b       	std	Y+17, r23	; 0x11
    208e:	0e 94 53 04 	call	0x8a6	; 0x8a6 <_ZN7Encoder10clearEventEv>
    2092:	f3 01       	movw	r30, r6
    2094:	80 81       	ld	r24, Z
    2096:	f6 01       	movw	r30, r12
    2098:	9b e0       	ldi	r25, 0x0B	; 11
    209a:	89 9f       	mul	r24, r25
    209c:	e0 0d       	add	r30, r0
    209e:	f1 1d       	adc	r31, r1
    20a0:	11 24       	eor	r1, r1
    20a2:	42 89       	ldd	r20, Z+18	; 0x12
    20a4:	60 89       	ldd	r22, Z+16	; 0x10
    20a6:	c4 01       	movw	r24, r8
    20a8:	a9 d9       	rcall	.-3246   	; 0x13fc <_ZN3Lcd6gotoxyEhh>
    20aa:	f6 01       	movw	r30, r12
    20ac:	eb 5a       	subi	r30, 0xAB	; 171
    20ae:	ff 4f       	sbci	r31, 0xFF	; 255
    20b0:	e0 80       	ld	r14, Z
    20b2:	f1 80       	ldd	r15, Z+1	; 0x01
    20b4:	02 81       	ldd	r16, Z+2	; 0x02
    20b6:	33 97       	sbiw	r30, 0x03	; 3
    20b8:	20 81       	ld	r18, Z
    20ba:	31 81       	ldd	r19, Z+1	; 0x01
    20bc:	42 81       	ldd	r20, Z+2	; 0x02
    20be:	65 2d       	mov	r22, r5
    20c0:	79 89       	ldd	r23, Y+17	; 0x11
    20c2:	c4 01       	movw	r24, r8
    20c4:	56 d9       	rcall	.-3412   	; 0x1372 <_ZN3Lcd4putsEPKc9_pixColorS2_>
    20c6:	61 96       	adiw	r28, 0x11	; 17
    20c8:	0f b6       	in	r0, 0x3f	; 63
    20ca:	f8 94       	cli
    20cc:	de bf       	out	0x3e, r29	; 62
    20ce:	0f be       	out	0x3f, r0	; 63
    20d0:	cd bf       	out	0x3d, r28	; 61
    20d2:	df 91       	pop	r29
    20d4:	cf 91       	pop	r28
    20d6:	1f 91       	pop	r17
    20d8:	0f 91       	pop	r16
    20da:	ff 90       	pop	r15
    20dc:	ef 90       	pop	r14
    20de:	df 90       	pop	r13
    20e0:	cf 90       	pop	r12
    20e2:	bf 90       	pop	r11
    20e4:	af 90       	pop	r10
    20e6:	9f 90       	pop	r9
    20e8:	8f 90       	pop	r8
    20ea:	7f 90       	pop	r7
    20ec:	6f 90       	pop	r6
    20ee:	5f 90       	pop	r5
    20f0:	4f 90       	pop	r4
    20f2:	3f 90       	pop	r3
    20f4:	2f 90       	pop	r2
    20f6:	08 95       	ret

000020f8 <_ZN6params11updateEnterEP7EncoderP2SwP3Lcd>:
    20f8:	4f 92       	push	r4
    20fa:	5f 92       	push	r5
    20fc:	6f 92       	push	r6
    20fe:	7f 92       	push	r7
    2100:	8f 92       	push	r8
    2102:	9f 92       	push	r9
    2104:	af 92       	push	r10
    2106:	bf 92       	push	r11
    2108:	cf 92       	push	r12
    210a:	df 92       	push	r13
    210c:	ef 92       	push	r14
    210e:	ff 92       	push	r15
    2110:	0f 93       	push	r16
    2112:	1f 93       	push	r17
    2114:	cf 93       	push	r28
    2116:	df 93       	push	r29
    2118:	ec 01       	movw	r28, r24
    211a:	5b 01       	movw	r10, r22
    211c:	4a 01       	movw	r8, r20
    211e:	69 01       	movw	r12, r18
    2120:	3c 01       	movw	r6, r24
    2122:	8b e4       	ldi	r24, 0x4B	; 75
    2124:	68 0e       	add	r6, r24
    2126:	71 1c       	adc	r7, r1
    2128:	f3 01       	movw	r30, r6
    212a:	80 81       	ld	r24, Z
    212c:	1b e0       	ldi	r17, 0x0B	; 11
    212e:	fe 01       	movw	r30, r28
    2130:	18 9f       	mul	r17, r24
    2132:	e0 0d       	add	r30, r0
    2134:	f1 1d       	adc	r31, r1
    2136:	11 24       	eor	r1, r1
    2138:	62 85       	ldd	r22, Z+10	; 0x0a
    213a:	44 85       	ldd	r20, Z+12	; 0x0c
    213c:	2e 01       	movw	r4, r28
    213e:	f8 e5       	ldi	r31, 0x58	; 88
    2140:	4f 0e       	add	r4, r31
    2142:	51 1c       	adc	r5, r1
    2144:	8c ef       	ldi	r24, 0xFC	; 252
    2146:	f2 01       	movw	r30, r4
    2148:	80 83       	st	Z, r24
    214a:	31 96       	adiw	r30, 0x01	; 1
    214c:	10 82       	st	Z, r1
    214e:	31 96       	adiw	r30, 0x01	; 1
    2150:	10 82       	st	Z, r1
    2152:	c9 01       	movw	r24, r18
    2154:	53 d9       	rcall	.-3418   	; 0x13fc <_ZN3Lcd6gotoxyEhh>
    2156:	fe 01       	movw	r30, r28
    2158:	eb 5a       	subi	r30, 0xAB	; 171
    215a:	ff 4f       	sbci	r31, 0xFF	; 255
    215c:	e0 80       	ld	r14, Z
    215e:	f1 80       	ldd	r15, Z+1	; 0x01
    2160:	02 81       	ldd	r16, Z+2	; 0x02
    2162:	f2 01       	movw	r30, r4
    2164:	20 81       	ld	r18, Z
    2166:	31 81       	ldd	r19, Z+1	; 0x01
    2168:	42 81       	ldd	r20, Z+2	; 0x02
    216a:	f3 01       	movw	r30, r6
    216c:	80 81       	ld	r24, Z
    216e:	fe 01       	movw	r30, r28
    2170:	18 9f       	mul	r17, r24
    2172:	e0 0d       	add	r30, r0
    2174:	f1 1d       	adc	r31, r1
    2176:	11 24       	eor	r1, r1
    2178:	66 85       	ldd	r22, Z+14	; 0x0e
    217a:	77 85       	ldd	r23, Z+15	; 0x0f
    217c:	c6 01       	movw	r24, r12
    217e:	f9 d8       	rcall	.-3598   	; 0x1372 <_ZN3Lcd4putsEPKc9_pixColorS2_>
    2180:	61 e0       	ldi	r22, 0x01	; 1
    2182:	c5 01       	movw	r24, r10
    2184:	0e 94 62 04 	call	0x8c4	; 0x8c4 <_ZN7Encoder12setEventRateEh>
    2188:	fe 01       	movw	r30, r28
    218a:	e1 5b       	subi	r30, 0xB1	; 177
    218c:	ff 4f       	sbci	r31, 0xFF	; 255
    218e:	10 82       	st	Z, r1
    2190:	96 01       	movw	r18, r12
    2192:	a4 01       	movw	r20, r8
    2194:	b5 01       	movw	r22, r10
    2196:	ce 01       	movw	r24, r28
    2198:	df 91       	pop	r29
    219a:	cf 91       	pop	r28
    219c:	1f 91       	pop	r17
    219e:	0f 91       	pop	r16
    21a0:	ff 90       	pop	r15
    21a2:	ef 90       	pop	r14
    21a4:	df 90       	pop	r13
    21a6:	cf 90       	pop	r12
    21a8:	bf 90       	pop	r11
    21aa:	af 90       	pop	r10
    21ac:	9f 90       	pop	r9
    21ae:	8f 90       	pop	r8
    21b0:	7f 90       	pop	r7
    21b2:	6f 90       	pop	r6
    21b4:	5f 90       	pop	r5
    21b6:	4f 90       	pop	r4
    21b8:	86 cd       	rjmp	.-1268   	; 0x1cc6 <_ZN6params6updateEP7EncoderP2SwP3Lcd>

000021ba <_ZN2SwC1Ehh>:
    21ba:	fc 01       	movw	r30, r24
    21bc:	82 ef       	ldi	r24, 0xF2	; 242
    21be:	92 e0       	ldi	r25, 0x02	; 2
    21c0:	91 83       	std	Z+1, r25	; 0x01
    21c2:	80 83       	st	Z, r24
    21c4:	81 e0       	ldi	r24, 0x01	; 1
    21c6:	90 e0       	ldi	r25, 0x00	; 0
    21c8:	06 2e       	mov	r0, r22
    21ca:	01 c0       	rjmp	.+2      	; 0x21ce <_ZN2SwC1Ehh+0x14>
    21cc:	88 0f       	add	r24, r24
    21ce:	0a 94       	dec	r0
    21d0:	ea f7       	brpl	.-6      	; 0x21cc <_ZN2SwC1Ehh+0x12>
    21d2:	a4 2f       	mov	r26, r20
    21d4:	b0 e0       	ldi	r27, 0x00	; 0
    21d6:	b4 83       	std	Z+4, r27	; 0x04
    21d8:	a3 83       	std	Z+3, r26	; 0x03
    21da:	9d 01       	movw	r18, r26
    21dc:	22 50       	subi	r18, 0x02	; 2
    21de:	31 09       	sbc	r19, r1
    21e0:	36 83       	std	Z+6, r19	; 0x06
    21e2:	25 83       	std	Z+5, r18	; 0x05
    21e4:	11 97       	sbiw	r26, 0x01	; 1
    21e6:	b0 87       	std	Z+8, r27	; 0x08
    21e8:	a7 83       	std	Z+7, r26	; 0x07
    21ea:	62 83       	std	Z+2, r22	; 0x02
    21ec:	9c 91       	ld	r25, X
    21ee:	28 2f       	mov	r18, r24
    21f0:	20 95       	com	r18
    21f2:	92 23       	and	r25, r18
    21f4:	9c 93       	st	X, r25
    21f6:	a3 81       	ldd	r26, Z+3	; 0x03
    21f8:	b4 81       	ldd	r27, Z+4	; 0x04
    21fa:	9c 91       	ld	r25, X
    21fc:	98 2b       	or	r25, r24
    21fe:	9c 93       	st	X, r25
    2200:	a5 81       	ldd	r26, Z+5	; 0x05
    2202:	b6 81       	ldd	r27, Z+6	; 0x06
    2204:	9c 91       	ld	r25, X
    2206:	89 23       	and	r24, r25
    2208:	11 f0       	breq	.+4      	; 0x220e <_ZN2SwC1Ehh+0x54>
    220a:	11 86       	std	Z+9, r1	; 0x09
    220c:	02 c0       	rjmp	.+4      	; 0x2212 <_ZN2SwC1Ehh+0x58>
    220e:	82 e0       	ldi	r24, 0x02	; 2
    2210:	81 87       	std	Z+9, r24	; 0x09
    2212:	12 86       	std	Z+10, r1	; 0x0a
    2214:	61 e0       	ldi	r22, 0x01	; 1
    2216:	70 e0       	ldi	r23, 0x00	; 0
    2218:	cf 01       	movw	r24, r30
    221a:	0c 94 29 05 	jmp	0xa52	; 0xa52 <_ZN5Clock16registerPeriodicEP8Callbackj>

0000221e <_ZN2Sw6updateEv>:
    221e:	fc 01       	movw	r30, r24
    2220:	a5 81       	ldd	r26, Z+5	; 0x05
    2222:	b6 81       	ldd	r27, Z+6	; 0x06
    2224:	2c 91       	ld	r18, X
    2226:	81 e0       	ldi	r24, 0x01	; 1
    2228:	90 e0       	ldi	r25, 0x00	; 0
    222a:	02 80       	ldd	r0, Z+2	; 0x02
    222c:	02 c0       	rjmp	.+4      	; 0x2232 <_ZN2Sw6updateEv+0x14>
    222e:	88 0f       	add	r24, r24
    2230:	99 1f       	adc	r25, r25
    2232:	0a 94       	dec	r0
    2234:	e2 f7       	brpl	.-8      	; 0x222e <_ZN2Sw6updateEv+0x10>
    2236:	82 23       	and	r24, r18
    2238:	91 85       	ldd	r25, Z+9	; 0x09
    223a:	91 30       	cpi	r25, 0x01	; 1
    223c:	51 f0       	breq	.+20     	; 0x2252 <_ZN2Sw6updateEv+0x34>
    223e:	28 f0       	brcs	.+10     	; 0x224a <_ZN2Sw6updateEv+0x2c>
    2240:	92 30       	cpi	r25, 0x02	; 2
    2242:	61 f0       	breq	.+24     	; 0x225c <_ZN2Sw6updateEv+0x3e>
    2244:	93 30       	cpi	r25, 0x03	; 3
    2246:	79 f0       	breq	.+30     	; 0x2266 <_ZN2Sw6updateEv+0x48>
    2248:	08 95       	ret
    224a:	81 11       	cpse	r24, r1
    224c:	11 c0       	rjmp	.+34     	; 0x2270 <_ZN2Sw6updateEv+0x52>
    224e:	81 e0       	ldi	r24, 0x01	; 1
    2250:	08 c0       	rjmp	.+16     	; 0x2262 <_ZN2Sw6updateEv+0x44>
    2252:	81 11       	cpse	r24, r1
    2254:	0d c0       	rjmp	.+26     	; 0x2270 <_ZN2Sw6updateEv+0x52>
    2256:	82 e0       	ldi	r24, 0x02	; 2
    2258:	81 87       	std	Z+9, r24	; 0x09
    225a:	09 c0       	rjmp	.+18     	; 0x226e <_ZN2Sw6updateEv+0x50>
    225c:	88 23       	and	r24, r24
    225e:	41 f0       	breq	.+16     	; 0x2270 <_ZN2Sw6updateEv+0x52>
    2260:	83 e0       	ldi	r24, 0x03	; 3
    2262:	81 87       	std	Z+9, r24	; 0x09
    2264:	08 95       	ret
    2266:	88 23       	and	r24, r24
    2268:	19 f0       	breq	.+6      	; 0x2270 <_ZN2Sw6updateEv+0x52>
    226a:	11 86       	std	Z+9, r1	; 0x09
    226c:	81 e0       	ldi	r24, 0x01	; 1
    226e:	82 87       	std	Z+10, r24	; 0x0a
    2270:	08 95       	ret

00002272 <_ZN2Sw8callbackEv>:
    2272:	d5 cf       	rjmp	.-86     	; 0x221e <_ZN2Sw6updateEv>

00002274 <_ZN2Sw8hasEventEv>:
    2274:	21 e0       	ldi	r18, 0x01	; 1
    2276:	fc 01       	movw	r30, r24
    2278:	82 85       	ldd	r24, Z+10	; 0x0a
    227a:	81 11       	cpse	r24, r1
    227c:	01 c0       	rjmp	.+2      	; 0x2280 <_ZN2Sw8hasEventEv+0xc>
    227e:	20 e0       	ldi	r18, 0x00	; 0
    2280:	82 2f       	mov	r24, r18
    2282:	08 95       	ret

00002284 <_ZN2Sw8getEventEv>:
    2284:	fc 01       	movw	r30, r24
    2286:	82 85       	ldd	r24, Z+10	; 0x0a
    2288:	08 95       	ret

0000228a <_ZN2Sw10clearEventEv>:
    228a:	fc 01       	movw	r30, r24
    228c:	12 86       	std	Z+10, r1	; 0x0a
    228e:	08 95       	ret

00002290 <_ZN2Sw8isClosedEv>:
    2290:	fc 01       	movw	r30, r24
    2292:	91 85       	ldd	r25, Z+9	; 0x09
    2294:	92 50       	subi	r25, 0x02	; 2
    2296:	81 e0       	ldi	r24, 0x01	; 1
    2298:	92 30       	cpi	r25, 0x02	; 2
    229a:	08 f0       	brcs	.+2      	; 0x229e <_ZN2Sw8isClosedEv+0xe>
    229c:	80 e0       	ldi	r24, 0x00	; 0
    229e:	08 95       	ret

000022a0 <uart_init>:
    22a0:	10 92 c5 00 	sts	0x00C5, r1	; 0x8000c5 <__TEXT_REGION_LENGTH__+0x7e00c5>
    22a4:	88 e0       	ldi	r24, 0x08	; 8
    22a6:	80 93 c4 00 	sts	0x00C4, r24	; 0x8000c4 <__TEXT_REGION_LENGTH__+0x7e00c4>
    22aa:	88 e1       	ldi	r24, 0x18	; 24
    22ac:	80 93 c1 00 	sts	0x00C1, r24	; 0x8000c1 <__TEXT_REGION_LENGTH__+0x7e00c1>
    22b0:	8e e0       	ldi	r24, 0x0E	; 14
    22b2:	80 93 c2 00 	sts	0x00C2, r24	; 0x8000c2 <__TEXT_REGION_LENGTH__+0x7e00c2>
    22b6:	08 95       	ret

000022b8 <uart_getc>:
    22b8:	80 91 c0 00 	lds	r24, 0x00C0	; 0x8000c0 <__TEXT_REGION_LENGTH__+0x7e00c0>
    22bc:	87 ff       	sbrs	r24, 7
    22be:	fc cf       	rjmp	.-8      	; 0x22b8 <uart_getc>
    22c0:	80 91 c6 00 	lds	r24, 0x00C6	; 0x8000c6 <__TEXT_REGION_LENGTH__+0x7e00c6>
    22c4:	90 e0       	ldi	r25, 0x00	; 0
    22c6:	08 95       	ret

000022c8 <uart_putc>:
    22c8:	cf 93       	push	r28
    22ca:	c8 2f       	mov	r28, r24
    22cc:	8a 30       	cpi	r24, 0x0A	; 10
    22ce:	11 f4       	brne	.+4      	; 0x22d4 <uart_putc+0xc>
    22d0:	8d e0       	ldi	r24, 0x0D	; 13
    22d2:	fa df       	rcall	.-12     	; 0x22c8 <uart_putc>
    22d4:	80 91 c0 00 	lds	r24, 0x00C0	; 0x8000c0 <__TEXT_REGION_LENGTH__+0x7e00c0>
    22d8:	85 ff       	sbrs	r24, 5
    22da:	fc cf       	rjmp	.-8      	; 0x22d4 <uart_putc+0xc>
    22dc:	c0 93 c6 00 	sts	0x00C6, r28	; 0x8000c6 <__TEXT_REGION_LENGTH__+0x7e00c6>
    22e0:	80 e0       	ldi	r24, 0x00	; 0
    22e2:	90 e0       	ldi	r25, 0x00	; 0
    22e4:	cf 91       	pop	r28
    22e6:	08 95       	ret

000022e8 <_ZN3vfoC1EP7EncoderP13vfoParametersj>:
    22e8:	8f 92       	push	r8
    22ea:	9f 92       	push	r9
    22ec:	af 92       	push	r10
    22ee:	bf 92       	push	r11
    22f0:	cf 92       	push	r12
    22f2:	df 92       	push	r13
    22f4:	ef 92       	push	r14
    22f6:	ff 92       	push	r15
    22f8:	0f 93       	push	r16
    22fa:	1f 93       	push	r17
    22fc:	cf 93       	push	r28
    22fe:	df 93       	push	r29
    2300:	fa 01       	movw	r30, r20
    2302:	dc 01       	movw	r26, r24
    2304:	4f 5e       	subi	r20, 0xEF	; 239
    2306:	5f 4f       	sbci	r21, 0xFF	; 255
    2308:	5c 01       	movw	r10, r24
    230a:	11 e1       	ldi	r17, 0x11	; 17
    230c:	a1 0e       	add	r10, r17
    230e:	b1 1c       	adc	r11, r1
    2310:	4f 01       	movw	r8, r30
    2312:	c2 ea       	ldi	r28, 0xA2	; 162
    2314:	8c 0e       	add	r8, r28
    2316:	91 1c       	adc	r9, r1
    2318:	c0 80       	ld	r12, Z
    231a:	d1 80       	ldd	r13, Z+1	; 0x01
    231c:	e2 80       	ldd	r14, Z+2	; 0x02
    231e:	f3 80       	ldd	r15, Z+3	; 0x03
    2320:	cd 92       	st	X+, r12
    2322:	dd 92       	st	X+, r13
    2324:	ed 92       	st	X+, r14
    2326:	fc 92       	st	X, r15
    2328:	13 97       	sbiw	r26, 0x03	; 3
    232a:	c4 80       	ldd	r12, Z+4	; 0x04
    232c:	d5 80       	ldd	r13, Z+5	; 0x05
    232e:	e6 80       	ldd	r14, Z+6	; 0x06
    2330:	f7 80       	ldd	r15, Z+7	; 0x07
    2332:	14 96       	adiw	r26, 0x04	; 4
    2334:	cd 92       	st	X+, r12
    2336:	dd 92       	st	X+, r13
    2338:	ed 92       	st	X+, r14
    233a:	fc 92       	st	X, r15
    233c:	17 97       	sbiw	r26, 0x07	; 7
    233e:	7a 01       	movw	r14, r20
    2340:	d9 e0       	ldi	r29, 0x09	; 9
    2342:	ed 1a       	sub	r14, r29
    2344:	f1 08       	sbc	r15, r1
    2346:	e7 01       	movw	r28, r14
    2348:	d8 80       	ld	r13, Y
    234a:	75 01       	movw	r14, r10
    234c:	d9 e0       	ldi	r29, 0x09	; 9
    234e:	ed 1a       	sub	r14, r29
    2350:	f1 08       	sbc	r15, r1
    2352:	e7 01       	movw	r28, r14
    2354:	d8 82       	st	Y, r13
    2356:	c1 84       	ldd	r12, Z+9	; 0x09
    2358:	d2 84       	ldd	r13, Z+10	; 0x0a
    235a:	e3 84       	ldd	r14, Z+11	; 0x0b
    235c:	f4 84       	ldd	r15, Z+12	; 0x0c
    235e:	19 96       	adiw	r26, 0x09	; 9
    2360:	cd 92       	st	X+, r12
    2362:	dd 92       	st	X+, r13
    2364:	ed 92       	st	X+, r14
    2366:	fc 92       	st	X, r15
    2368:	1c 97       	sbiw	r26, 0x0c	; 12
    236a:	c5 84       	ldd	r12, Z+13	; 0x0d
    236c:	d6 84       	ldd	r13, Z+14	; 0x0e
    236e:	e7 84       	ldd	r14, Z+15	; 0x0f
    2370:	f0 88       	ldd	r15, Z+16	; 0x10
    2372:	1d 96       	adiw	r26, 0x0d	; 13
    2374:	cd 92       	st	X+, r12
    2376:	dd 92       	st	X+, r13
    2378:	ed 92       	st	X+, r14
    237a:	fc 92       	st	X, r15
    237c:	50 97       	sbiw	r26, 0x10	; 16
    237e:	ea 01       	movw	r28, r20
    2380:	f8 80       	ld	r15, Y
    2382:	e5 01       	movw	r28, r10
    2384:	f8 82       	st	Y, r15
    2386:	72 96       	adiw	r30, 0x12	; 18
    2388:	52 96       	adiw	r26, 0x12	; 18
    238a:	4e 5e       	subi	r20, 0xEE	; 238
    238c:	5f 4f       	sbci	r21, 0xFF	; 255
    238e:	d2 e1       	ldi	r29, 0x12	; 18
    2390:	ad 0e       	add	r10, r29
    2392:	b1 1c       	adc	r11, r1
    2394:	e8 15       	cp	r30, r8
    2396:	f9 05       	cpc	r31, r9
    2398:	09 f0       	breq	.+2      	; 0x239c <_ZN3vfoC1EP7EncoderP13vfoParametersj+0xb4>
    239a:	be cf       	rjmp	.-132    	; 0x2318 <_ZN3vfoC1EP7EncoderP13vfoParametersj+0x30>
    239c:	fc 01       	movw	r30, r24
    239e:	e9 55       	subi	r30, 0x59	; 89
    23a0:	ff 4f       	sbci	r31, 0xFF	; 255
    23a2:	71 83       	std	Z+1, r23	; 0x01
    23a4:	60 83       	st	Z, r22
    23a6:	35 97       	sbiw	r30, 0x05	; 5
    23a8:	44 e6       	ldi	r20, 0x64	; 100
    23aa:	50 e0       	ldi	r21, 0x00	; 0
    23ac:	60 e0       	ldi	r22, 0x00	; 0
    23ae:	70 e0       	ldi	r23, 0x00	; 0
    23b0:	40 83       	st	Z, r20
    23b2:	51 83       	std	Z+1, r21	; 0x01
    23b4:	62 83       	std	Z+2, r22	; 0x02
    23b6:	73 83       	std	Z+3, r23	; 0x03
    23b8:	34 96       	adiw	r30, 0x04	; 4
    23ba:	41 e0       	ldi	r20, 0x01	; 1
    23bc:	40 83       	st	Z, r20
    23be:	33 96       	adiw	r30, 0x03	; 3
    23c0:	31 83       	std	Z+1, r19	; 0x01
    23c2:	20 83       	st	Z, r18
    23c4:	df 91       	pop	r29
    23c6:	cf 91       	pop	r28
    23c8:	1f 91       	pop	r17
    23ca:	0f 91       	pop	r16
    23cc:	ff 90       	pop	r15
    23ce:	ef 90       	pop	r14
    23d0:	df 90       	pop	r13
    23d2:	cf 90       	pop	r12
    23d4:	bf 90       	pop	r11
    23d6:	af 90       	pop	r10
    23d8:	9f 90       	pop	r9
    23da:	8f 90       	pop	r8
    23dc:	08 95       	ret

000023de <_ZN3vfo6updateEh>:
    23de:	af 92       	push	r10
    23e0:	bf 92       	push	r11
    23e2:	cf 92       	push	r12
    23e4:	df 92       	push	r13
    23e6:	ef 92       	push	r14
    23e8:	ff 92       	push	r15
    23ea:	0f 93       	push	r16
    23ec:	1f 93       	push	r17
    23ee:	cf 93       	push	r28
    23f0:	df 93       	push	r29
    23f2:	00 d0       	rcall	.+0      	; 0x23f4 <_ZN3vfo6updateEh+0x16>
    23f4:	00 d0       	rcall	.+0      	; 0x23f6 <_ZN3vfo6updateEh+0x18>
    23f6:	cd b7       	in	r28, 0x3d	; 61
    23f8:	de b7       	in	r29, 0x3e	; 62
    23fa:	5c 01       	movw	r10, r24
    23fc:	16 2f       	mov	r17, r22
    23fe:	7c 01       	movw	r14, r24
    2400:	27 ea       	ldi	r18, 0xA7	; 167
    2402:	e2 0e       	add	r14, r18
    2404:	f1 1c       	adc	r15, r1
    2406:	f7 01       	movw	r30, r14
    2408:	80 81       	ld	r24, Z
    240a:	91 81       	ldd	r25, Z+1	; 0x01
    240c:	0e 94 48 04 	call	0x890	; 0x890 <_ZN7Encoder8hasEventEv>
    2410:	88 23       	and	r24, r24
    2412:	09 f4       	brne	.+2      	; 0x2416 <_ZN3vfo6updateEh+0x38>
    2414:	82 c0       	rjmp	.+260    	; 0x251a <_ZN3vfo6updateEh+0x13c>
    2416:	f7 01       	movw	r30, r14
    2418:	80 81       	ld	r24, Z
    241a:	91 81       	ldd	r25, Z+1	; 0x01
    241c:	0e 94 50 04 	call	0x8a0	; 0x8a0 <_ZN7Encoder8getEventEv>
    2420:	82 30       	cpi	r24, 0x02	; 2
    2422:	e1 f5       	brne	.+120    	; 0x249c <_ZN3vfo6updateEh+0xbe>
    2424:	f5 01       	movw	r30, r10
    2426:	ee 55       	subi	r30, 0x5E	; 94
    2428:	ff 4f       	sbci	r31, 0xFF	; 255
    242a:	20 81       	ld	r18, Z
    242c:	31 81       	ldd	r19, Z+1	; 0x01
    242e:	42 81       	ldd	r20, Z+2	; 0x02
    2430:	53 81       	ldd	r21, Z+3	; 0x03
    2432:	f7 01       	movw	r30, r14
    2434:	80 81       	ld	r24, Z
    2436:	91 81       	ldd	r25, Z+1	; 0x01
    2438:	29 83       	std	Y+1, r18	; 0x01
    243a:	3a 83       	std	Y+2, r19	; 0x02
    243c:	4b 83       	std	Y+3, r20	; 0x03
    243e:	5c 83       	std	Y+4, r21	; 0x04
    2440:	0e 94 5c 04 	call	0x8b8	; 0x8b8 <_ZN7Encoder17getMissedCcwCountEv>
    2444:	dc 01       	movw	r26, r24
    2446:	11 96       	adiw	r26, 0x01	; 1
    2448:	29 81       	ldd	r18, Y+1	; 0x01
    244a:	3a 81       	ldd	r19, Y+2	; 0x02
    244c:	4b 81       	ldd	r20, Y+3	; 0x03
    244e:	5c 81       	ldd	r21, Y+4	; 0x04
    2450:	0d d2       	rcall	.+1050   	; 0x286c <__mulshisi3>
    2452:	f5 01       	movw	r30, r10
    2454:	22 e1       	ldi	r18, 0x12	; 18
    2456:	12 9f       	mul	r17, r18
    2458:	e0 0d       	add	r30, r0
    245a:	f1 1d       	adc	r31, r1
    245c:	11 24       	eor	r1, r1
    245e:	c0 80       	ld	r12, Z
    2460:	d1 80       	ldd	r13, Z+1	; 0x01
    2462:	e2 80       	ldd	r14, Z+2	; 0x02
    2464:	f3 80       	ldd	r15, Z+3	; 0x03
    2466:	c6 1a       	sub	r12, r22
    2468:	d7 0a       	sbc	r13, r23
    246a:	e8 0a       	sbc	r14, r24
    246c:	f9 0a       	sbc	r15, r25
    246e:	c0 82       	st	Z, r12
    2470:	d1 82       	std	Z+1, r13	; 0x01
    2472:	e2 82       	std	Z+2, r14	; 0x02
    2474:	f3 82       	std	Z+3, r15	; 0x03
    2476:	f5 01       	movw	r30, r10
    2478:	22 e1       	ldi	r18, 0x12	; 18
    247a:	12 9f       	mul	r17, r18
    247c:	e0 0d       	add	r30, r0
    247e:	f1 1d       	adc	r31, r1
    2480:	11 24       	eor	r1, r1
    2482:	01 85       	ldd	r16, Z+9	; 0x09
    2484:	12 85       	ldd	r17, Z+10	; 0x0a
    2486:	23 85       	ldd	r18, Z+11	; 0x0b
    2488:	34 85       	ldd	r19, Z+12	; 0x0c
    248a:	68 01       	movw	r12, r16
    248c:	79 01       	movw	r14, r18
    248e:	c6 1a       	sub	r12, r22
    2490:	d7 0a       	sbc	r13, r23
    2492:	e8 0a       	sbc	r14, r24
    2494:	f9 0a       	sbc	r15, r25
    2496:	d7 01       	movw	r26, r14
    2498:	c6 01       	movw	r24, r12
    249a:	3b c0       	rjmp	.+118    	; 0x2512 <_ZN3vfo6updateEh+0x134>
    249c:	81 30       	cpi	r24, 0x01	; 1
    249e:	e9 f5       	brne	.+122    	; 0x251a <_ZN3vfo6updateEh+0x13c>
    24a0:	f5 01       	movw	r30, r10
    24a2:	ee 55       	subi	r30, 0x5E	; 94
    24a4:	ff 4f       	sbci	r31, 0xFF	; 255
    24a6:	20 81       	ld	r18, Z
    24a8:	31 81       	ldd	r19, Z+1	; 0x01
    24aa:	42 81       	ldd	r20, Z+2	; 0x02
    24ac:	53 81       	ldd	r21, Z+3	; 0x03
    24ae:	f7 01       	movw	r30, r14
    24b0:	80 81       	ld	r24, Z
    24b2:	91 81       	ldd	r25, Z+1	; 0x01
    24b4:	29 83       	std	Y+1, r18	; 0x01
    24b6:	3a 83       	std	Y+2, r19	; 0x02
    24b8:	4b 83       	std	Y+3, r20	; 0x03
    24ba:	5c 83       	std	Y+4, r21	; 0x04
    24bc:	0e 94 56 04 	call	0x8ac	; 0x8ac <_ZN7Encoder16getMissedCwCountEv>
    24c0:	dc 01       	movw	r26, r24
    24c2:	11 96       	adiw	r26, 0x01	; 1
    24c4:	29 81       	ldd	r18, Y+1	; 0x01
    24c6:	3a 81       	ldd	r19, Y+2	; 0x02
    24c8:	4b 81       	ldd	r20, Y+3	; 0x03
    24ca:	5c 81       	ldd	r21, Y+4	; 0x04
    24cc:	cf d1       	rcall	.+926    	; 0x286c <__mulshisi3>
    24ce:	f5 01       	movw	r30, r10
    24d0:	22 e1       	ldi	r18, 0x12	; 18
    24d2:	12 9f       	mul	r17, r18
    24d4:	e0 0d       	add	r30, r0
    24d6:	f1 1d       	adc	r31, r1
    24d8:	11 24       	eor	r1, r1
    24da:	c0 80       	ld	r12, Z
    24dc:	d1 80       	ldd	r13, Z+1	; 0x01
    24de:	e2 80       	ldd	r14, Z+2	; 0x02
    24e0:	f3 80       	ldd	r15, Z+3	; 0x03
    24e2:	c6 0e       	add	r12, r22
    24e4:	d7 1e       	adc	r13, r23
    24e6:	e8 1e       	adc	r14, r24
    24e8:	f9 1e       	adc	r15, r25
    24ea:	c0 82       	st	Z, r12
    24ec:	d1 82       	std	Z+1, r13	; 0x01
    24ee:	e2 82       	std	Z+2, r14	; 0x02
    24f0:	f3 82       	std	Z+3, r15	; 0x03
    24f2:	f5 01       	movw	r30, r10
    24f4:	22 e1       	ldi	r18, 0x12	; 18
    24f6:	12 9f       	mul	r17, r18
    24f8:	e0 0d       	add	r30, r0
    24fa:	f1 1d       	adc	r31, r1
    24fc:	11 24       	eor	r1, r1
    24fe:	01 85       	ldd	r16, Z+9	; 0x09
    2500:	12 85       	ldd	r17, Z+10	; 0x0a
    2502:	23 85       	ldd	r18, Z+11	; 0x0b
    2504:	34 85       	ldd	r19, Z+12	; 0x0c
    2506:	dc 01       	movw	r26, r24
    2508:	cb 01       	movw	r24, r22
    250a:	80 0f       	add	r24, r16
    250c:	91 1f       	adc	r25, r17
    250e:	a2 1f       	adc	r26, r18
    2510:	b3 1f       	adc	r27, r19
    2512:	81 87       	std	Z+9, r24	; 0x09
    2514:	92 87       	std	Z+10, r25	; 0x0a
    2516:	a3 87       	std	Z+11, r26	; 0x0b
    2518:	b4 87       	std	Z+12, r27	; 0x0c
    251a:	0f 90       	pop	r0
    251c:	0f 90       	pop	r0
    251e:	0f 90       	pop	r0
    2520:	0f 90       	pop	r0
    2522:	df 91       	pop	r29
    2524:	cf 91       	pop	r28
    2526:	1f 91       	pop	r17
    2528:	0f 91       	pop	r16
    252a:	ff 90       	pop	r15
    252c:	ef 90       	pop	r14
    252e:	df 90       	pop	r13
    2530:	cf 90       	pop	r12
    2532:	bf 90       	pop	r11
    2534:	af 90       	pop	r10
    2536:	08 95       	ret

00002538 <_ZN3vfo9getRxFreqE5_band>:
    2538:	0f 93       	push	r16
    253a:	1f 93       	push	r17
    253c:	fc 01       	movw	r30, r24
    253e:	02 e1       	ldi	r16, 0x12	; 18
    2540:	60 9f       	mul	r22, r16
    2542:	e0 0d       	add	r30, r0
    2544:	f1 1d       	adc	r31, r1
    2546:	11 24       	eor	r1, r1
    2548:	80 81       	ld	r24, Z
    254a:	91 81       	ldd	r25, Z+1	; 0x01
    254c:	a2 81       	ldd	r26, Z+2	; 0x02
    254e:	b3 81       	ldd	r27, Z+3	; 0x03
    2550:	44 81       	ldd	r20, Z+4	; 0x04
    2552:	55 81       	ldd	r21, Z+5	; 0x05
    2554:	66 81       	ldd	r22, Z+6	; 0x06
    2556:	77 81       	ldd	r23, Z+7	; 0x07
    2558:	8c 01       	movw	r16, r24
    255a:	9d 01       	movw	r18, r26
    255c:	04 0f       	add	r16, r20
    255e:	15 1f       	adc	r17, r21
    2560:	26 1f       	adc	r18, r22
    2562:	37 1f       	adc	r19, r23
    2564:	c9 01       	movw	r24, r18
    2566:	b8 01       	movw	r22, r16
    2568:	20 85       	ldd	r18, Z+8	; 0x08
    256a:	30 e0       	ldi	r19, 0x00	; 0
    256c:	40 e0       	ldi	r20, 0x00	; 0
    256e:	50 e0       	ldi	r21, 0x00	; 0
    2570:	51 d1       	rcall	.+674    	; 0x2814 <__udivmodsi4>
    2572:	ca 01       	movw	r24, r20
    2574:	b9 01       	movw	r22, r18
    2576:	bb d1       	rcall	.+886    	; 0x28ee <__floatunsisf>
    2578:	1f 91       	pop	r17
    257a:	0f 91       	pop	r16
    257c:	08 95       	ret

0000257e <_ZN3vfo9getTxFreqE5_band>:
    257e:	0f 93       	push	r16
    2580:	1f 93       	push	r17
    2582:	fc 01       	movw	r30, r24
    2584:	02 e1       	ldi	r16, 0x12	; 18
    2586:	60 9f       	mul	r22, r16
    2588:	e0 0d       	add	r30, r0
    258a:	f1 1d       	adc	r31, r1
    258c:	11 24       	eor	r1, r1
    258e:	81 85       	ldd	r24, Z+9	; 0x09
    2590:	92 85       	ldd	r25, Z+10	; 0x0a
    2592:	a3 85       	ldd	r26, Z+11	; 0x0b
    2594:	b4 85       	ldd	r27, Z+12	; 0x0c
    2596:	45 85       	ldd	r20, Z+13	; 0x0d
    2598:	56 85       	ldd	r21, Z+14	; 0x0e
    259a:	67 85       	ldd	r22, Z+15	; 0x0f
    259c:	70 89       	ldd	r23, Z+16	; 0x10
    259e:	8c 01       	movw	r16, r24
    25a0:	9d 01       	movw	r18, r26
    25a2:	04 0f       	add	r16, r20
    25a4:	15 1f       	adc	r17, r21
    25a6:	26 1f       	adc	r18, r22
    25a8:	37 1f       	adc	r19, r23
    25aa:	c9 01       	movw	r24, r18
    25ac:	b8 01       	movw	r22, r16
    25ae:	21 89       	ldd	r18, Z+17	; 0x11
    25b0:	30 e0       	ldi	r19, 0x00	; 0
    25b2:	40 e0       	ldi	r20, 0x00	; 0
    25b4:	50 e0       	ldi	r21, 0x00	; 0
    25b6:	2e d1       	rcall	.+604    	; 0x2814 <__udivmodsi4>
    25b8:	ca 01       	movw	r24, r20
    25ba:	b9 01       	movw	r22, r18
    25bc:	98 d1       	rcall	.+816    	; 0x28ee <__floatunsisf>
    25be:	1f 91       	pop	r17
    25c0:	0f 91       	pop	r16
    25c2:	08 95       	ret

000025c4 <_ZN3vfo7setStepE6step_t>:
    25c4:	fc 01       	movw	r30, r24
    25c6:	ea 55       	subi	r30, 0x5A	; 90
    25c8:	ff 4f       	sbci	r31, 0xFF	; 255
    25ca:	60 83       	st	Z, r22
    25cc:	dc 01       	movw	r26, r24
    25ce:	ae 55       	subi	r26, 0x5E	; 94
    25d0:	bf 4f       	sbci	r27, 0xFF	; 255
    25d2:	84 e0       	ldi	r24, 0x04	; 4
    25d4:	68 9f       	mul	r22, r24
    25d6:	f0 01       	movw	r30, r0
    25d8:	11 24       	eor	r1, r1
    25da:	ec 50       	subi	r30, 0x0C	; 12
    25dc:	fd 4f       	sbci	r31, 0xFD	; 253
    25de:	40 81       	ld	r20, Z
    25e0:	51 81       	ldd	r21, Z+1	; 0x01
    25e2:	62 81       	ldd	r22, Z+2	; 0x02
    25e4:	73 81       	ldd	r23, Z+3	; 0x03
    25e6:	4d 93       	st	X+, r20
    25e8:	5d 93       	st	X+, r21
    25ea:	6d 93       	st	X+, r22
    25ec:	7c 93       	st	X, r23
    25ee:	13 97       	sbiw	r26, 0x03	; 3
    25f0:	08 95       	ret

000025f2 <_ZN3vfo13intToString32EmPc>:
    25f2:	cf 92       	push	r12
    25f4:	df 92       	push	r13
    25f6:	ef 92       	push	r14
    25f8:	ff 92       	push	r15
    25fa:	cf 93       	push	r28
    25fc:	df 93       	push	r29
    25fe:	6a 01       	movw	r12, r20
    2600:	7b 01       	movw	r14, r22
    2602:	e9 01       	movw	r28, r18
    2604:	cb 01       	movw	r24, r22
    2606:	ba 01       	movw	r22, r20
    2608:	20 e0       	ldi	r18, 0x00	; 0
    260a:	31 ee       	ldi	r19, 0xE1	; 225
    260c:	45 ef       	ldi	r20, 0xF5	; 245
    260e:	55 e0       	ldi	r21, 0x05	; 5
    2610:	01 d1       	rcall	.+514    	; 0x2814 <__udivmodsi4>
    2612:	80 e3       	ldi	r24, 0x30	; 48
    2614:	82 0f       	add	r24, r18
    2616:	88 83       	st	Y, r24
    2618:	60 e0       	ldi	r22, 0x00	; 0
    261a:	71 ee       	ldi	r23, 0xE1	; 225
    261c:	85 ef       	ldi	r24, 0xF5	; 245
    261e:	95 e0       	ldi	r25, 0x05	; 5
    2620:	ea d0       	rcall	.+468    	; 0x27f6 <__mulsi3>
    2622:	c6 1a       	sub	r12, r22
    2624:	d7 0a       	sbc	r13, r23
    2626:	e8 0a       	sbc	r14, r24
    2628:	f9 0a       	sbc	r15, r25
    262a:	c7 01       	movw	r24, r14
    262c:	b6 01       	movw	r22, r12
    262e:	20 e8       	ldi	r18, 0x80	; 128
    2630:	36 e9       	ldi	r19, 0x96	; 150
    2632:	48 e9       	ldi	r20, 0x98	; 152
    2634:	50 e0       	ldi	r21, 0x00	; 0
    2636:	ee d0       	rcall	.+476    	; 0x2814 <__udivmodsi4>
    2638:	80 e3       	ldi	r24, 0x30	; 48
    263a:	82 0f       	add	r24, r18
    263c:	89 83       	std	Y+1, r24	; 0x01
    263e:	60 e8       	ldi	r22, 0x80	; 128
    2640:	76 e9       	ldi	r23, 0x96	; 150
    2642:	88 e9       	ldi	r24, 0x98	; 152
    2644:	90 e0       	ldi	r25, 0x00	; 0
    2646:	d7 d0       	rcall	.+430    	; 0x27f6 <__mulsi3>
    2648:	c6 1a       	sub	r12, r22
    264a:	d7 0a       	sbc	r13, r23
    264c:	e8 0a       	sbc	r14, r24
    264e:	f9 0a       	sbc	r15, r25
    2650:	c7 01       	movw	r24, r14
    2652:	b6 01       	movw	r22, r12
    2654:	20 e4       	ldi	r18, 0x40	; 64
    2656:	32 e4       	ldi	r19, 0x42	; 66
    2658:	4f e0       	ldi	r20, 0x0F	; 15
    265a:	50 e0       	ldi	r21, 0x00	; 0
    265c:	db d0       	rcall	.+438    	; 0x2814 <__udivmodsi4>
    265e:	80 e3       	ldi	r24, 0x30	; 48
    2660:	82 0f       	add	r24, r18
    2662:	8a 83       	std	Y+2, r24	; 0x02
    2664:	60 e4       	ldi	r22, 0x40	; 64
    2666:	72 e4       	ldi	r23, 0x42	; 66
    2668:	8f e0       	ldi	r24, 0x0F	; 15
    266a:	90 e0       	ldi	r25, 0x00	; 0
    266c:	c4 d0       	rcall	.+392    	; 0x27f6 <__mulsi3>
    266e:	c6 1a       	sub	r12, r22
    2670:	d7 0a       	sbc	r13, r23
    2672:	e8 0a       	sbc	r14, r24
    2674:	f9 0a       	sbc	r15, r25
    2676:	c7 01       	movw	r24, r14
    2678:	b6 01       	movw	r22, r12
    267a:	20 ea       	ldi	r18, 0xA0	; 160
    267c:	36 e8       	ldi	r19, 0x86	; 134
    267e:	41 e0       	ldi	r20, 0x01	; 1
    2680:	50 e0       	ldi	r21, 0x00	; 0
    2682:	c8 d0       	rcall	.+400    	; 0x2814 <__udivmodsi4>
    2684:	80 e3       	ldi	r24, 0x30	; 48
    2686:	82 0f       	add	r24, r18
    2688:	8b 83       	std	Y+3, r24	; 0x03
    268a:	60 ea       	ldi	r22, 0xA0	; 160
    268c:	76 e8       	ldi	r23, 0x86	; 134
    268e:	81 e0       	ldi	r24, 0x01	; 1
    2690:	90 e0       	ldi	r25, 0x00	; 0
    2692:	b1 d0       	rcall	.+354    	; 0x27f6 <__mulsi3>
    2694:	c6 1a       	sub	r12, r22
    2696:	d7 0a       	sbc	r13, r23
    2698:	e8 0a       	sbc	r14, r24
    269a:	f9 0a       	sbc	r15, r25
    269c:	c7 01       	movw	r24, r14
    269e:	b6 01       	movw	r22, r12
    26a0:	20 e1       	ldi	r18, 0x10	; 16
    26a2:	37 e2       	ldi	r19, 0x27	; 39
    26a4:	40 e0       	ldi	r20, 0x00	; 0
    26a6:	50 e0       	ldi	r21, 0x00	; 0
    26a8:	b5 d0       	rcall	.+362    	; 0x2814 <__udivmodsi4>
    26aa:	80 e3       	ldi	r24, 0x30	; 48
    26ac:	82 0f       	add	r24, r18
    26ae:	8c 83       	std	Y+4, r24	; 0x04
    26b0:	a0 e1       	ldi	r26, 0x10	; 16
    26b2:	b7 e2       	ldi	r27, 0x27	; 39
    26b4:	d1 d0       	rcall	.+418    	; 0x2858 <__muluhisi3>
    26b6:	c6 1a       	sub	r12, r22
    26b8:	d7 0a       	sbc	r13, r23
    26ba:	e8 0a       	sbc	r14, r24
    26bc:	f9 0a       	sbc	r15, r25
    26be:	c7 01       	movw	r24, r14
    26c0:	b6 01       	movw	r22, r12
    26c2:	28 ee       	ldi	r18, 0xE8	; 232
    26c4:	33 e0       	ldi	r19, 0x03	; 3
    26c6:	40 e0       	ldi	r20, 0x00	; 0
    26c8:	50 e0       	ldi	r21, 0x00	; 0
    26ca:	a4 d0       	rcall	.+328    	; 0x2814 <__udivmodsi4>
    26cc:	80 e3       	ldi	r24, 0x30	; 48
    26ce:	82 0f       	add	r24, r18
    26d0:	8d 83       	std	Y+5, r24	; 0x05
    26d2:	a8 ee       	ldi	r26, 0xE8	; 232
    26d4:	b3 e0       	ldi	r27, 0x03	; 3
    26d6:	c0 d0       	rcall	.+384    	; 0x2858 <__muluhisi3>
    26d8:	c6 1a       	sub	r12, r22
    26da:	d7 0a       	sbc	r13, r23
    26dc:	e8 0a       	sbc	r14, r24
    26de:	f9 0a       	sbc	r15, r25
    26e0:	c7 01       	movw	r24, r14
    26e2:	b6 01       	movw	r22, r12
    26e4:	24 e6       	ldi	r18, 0x64	; 100
    26e6:	30 e0       	ldi	r19, 0x00	; 0
    26e8:	40 e0       	ldi	r20, 0x00	; 0
    26ea:	50 e0       	ldi	r21, 0x00	; 0
    26ec:	93 d0       	rcall	.+294    	; 0x2814 <__udivmodsi4>
    26ee:	80 e3       	ldi	r24, 0x30	; 48
    26f0:	82 0f       	add	r24, r18
    26f2:	8e 83       	std	Y+6, r24	; 0x06
    26f4:	a4 e6       	ldi	r26, 0x64	; 100
    26f6:	b0 e0       	ldi	r27, 0x00	; 0
    26f8:	af d0       	rcall	.+350    	; 0x2858 <__muluhisi3>
    26fa:	c6 1a       	sub	r12, r22
    26fc:	d7 0a       	sbc	r13, r23
    26fe:	e8 0a       	sbc	r14, r24
    2700:	f9 0a       	sbc	r15, r25
    2702:	c7 01       	movw	r24, r14
    2704:	b6 01       	movw	r22, r12
    2706:	2a e0       	ldi	r18, 0x0A	; 10
    2708:	30 e0       	ldi	r19, 0x00	; 0
    270a:	40 e0       	ldi	r20, 0x00	; 0
    270c:	50 e0       	ldi	r21, 0x00	; 0
    270e:	82 d0       	rcall	.+260    	; 0x2814 <__udivmodsi4>
    2710:	80 e3       	ldi	r24, 0x30	; 48
    2712:	82 0f       	add	r24, r18
    2714:	8f 83       	std	Y+7, r24	; 0x07
    2716:	aa e0       	ldi	r26, 0x0A	; 10
    2718:	b0 e0       	ldi	r27, 0x00	; 0
    271a:	9e d0       	rcall	.+316    	; 0x2858 <__muluhisi3>
    271c:	a7 01       	movw	r20, r14
    271e:	96 01       	movw	r18, r12
    2720:	26 1b       	sub	r18, r22
    2722:	37 0b       	sbc	r19, r23
    2724:	48 0b       	sbc	r20, r24
    2726:	59 0b       	sbc	r21, r25
    2728:	da 01       	movw	r26, r20
    272a:	c9 01       	movw	r24, r18
    272c:	80 5d       	subi	r24, 0xD0	; 208
    272e:	88 87       	std	Y+8, r24	; 0x08
    2730:	19 86       	std	Y+9, r1	; 0x09
    2732:	df 91       	pop	r29
    2734:	cf 91       	pop	r28
    2736:	ff 90       	pop	r15
    2738:	ef 90       	pop	r14
    273a:	df 90       	pop	r13
    273c:	cf 90       	pop	r12
    273e:	08 95       	ret

00002740 <_ZN3vfo17formatDisplayFreqEPcS0_>:
    2740:	fa 01       	movw	r30, r20
    2742:	db 01       	movw	r26, r22
    2744:	80 e0       	ldi	r24, 0x00	; 0
    2746:	90 e0       	ldi	r25, 0x00	; 0
    2748:	20 e0       	ldi	r18, 0x00	; 0
    274a:	30 e0       	ldi	r19, 0x00	; 0
    274c:	5e e2       	ldi	r21, 0x2E	; 46
    274e:	21 15       	cp	r18, r1
    2750:	31 05       	cpc	r19, r1
    2752:	59 f0       	breq	.+22     	; 0x276a <_ZN3vfo17formatDisplayFreqEPcS0_+0x2a>
    2754:	86 30       	cpi	r24, 0x06	; 6
    2756:	91 05       	cpc	r25, r1
    2758:	19 f0       	breq	.+6      	; 0x2760 <_ZN3vfo17formatDisplayFreqEPcS0_+0x20>
    275a:	83 30       	cpi	r24, 0x03	; 3
    275c:	91 05       	cpc	r25, r1
    275e:	11 f4       	brne	.+4      	; 0x2764 <_ZN3vfo17formatDisplayFreqEPcS0_+0x24>
    2760:	50 83       	st	Z, r21
    2762:	31 96       	adiw	r30, 0x01	; 1
    2764:	2c 91       	ld	r18, X
    2766:	20 83       	st	Z, r18
    2768:	04 c0       	rjmp	.+8      	; 0x2772 <_ZN3vfo17formatDisplayFreqEPcS0_+0x32>
    276a:	4c 91       	ld	r20, X
    276c:	40 33       	cpi	r20, 0x30	; 48
    276e:	21 f0       	breq	.+8      	; 0x2778 <_ZN3vfo17formatDisplayFreqEPcS0_+0x38>
    2770:	40 83       	st	Z, r20
    2772:	31 96       	adiw	r30, 0x01	; 1
    2774:	21 e0       	ldi	r18, 0x01	; 1
    2776:	30 e0       	ldi	r19, 0x00	; 0
    2778:	01 96       	adiw	r24, 0x01	; 1
    277a:	11 96       	adiw	r26, 0x01	; 1
    277c:	89 30       	cpi	r24, 0x09	; 9
    277e:	91 05       	cpc	r25, r1
    2780:	31 f7       	brne	.-52     	; 0x274e <_ZN3vfo17formatDisplayFreqEPcS0_+0xe>
    2782:	10 82       	st	Z, r1
    2784:	08 95       	ret

00002786 <_ZN3vfo16getTxDisplayFreqEPc5_band>:
    2786:	ef 92       	push	r14
    2788:	ff 92       	push	r15
    278a:	0f 93       	push	r16
    278c:	1f 93       	push	r17
    278e:	cf 93       	push	r28
    2790:	df 93       	push	r29
    2792:	cd b7       	in	r28, 0x3d	; 61
    2794:	de b7       	in	r29, 0x3e	; 62
    2796:	60 97       	sbiw	r28, 0x10	; 16
    2798:	0f b6       	in	r0, 0x3f	; 63
    279a:	f8 94       	cli
    279c:	de bf       	out	0x3e, r29	; 62
    279e:	0f be       	out	0x3f, r0	; 63
    27a0:	cd bf       	out	0x3d, r28	; 61
    27a2:	8c 01       	movw	r16, r24
    27a4:	7b 01       	movw	r14, r22
    27a6:	fc 01       	movw	r30, r24
    27a8:	82 e1       	ldi	r24, 0x12	; 18
    27aa:	48 9f       	mul	r20, r24
    27ac:	e0 0d       	add	r30, r0
    27ae:	f1 1d       	adc	r31, r1
    27b0:	11 24       	eor	r1, r1
    27b2:	41 85       	ldd	r20, Z+9	; 0x09
    27b4:	52 85       	ldd	r21, Z+10	; 0x0a
    27b6:	63 85       	ldd	r22, Z+11	; 0x0b
    27b8:	74 85       	ldd	r23, Z+12	; 0x0c
    27ba:	9e 01       	movw	r18, r28
    27bc:	2f 5f       	subi	r18, 0xFF	; 255
    27be:	3f 4f       	sbci	r19, 0xFF	; 255
    27c0:	c8 01       	movw	r24, r16
    27c2:	17 df       	rcall	.-466    	; 0x25f2 <_ZN3vfo13intToString32EmPc>
    27c4:	a7 01       	movw	r20, r14
    27c6:	be 01       	movw	r22, r28
    27c8:	6f 5f       	subi	r22, 0xFF	; 255
    27ca:	7f 4f       	sbci	r23, 0xFF	; 255
    27cc:	c8 01       	movw	r24, r16
    27ce:	b8 df       	rcall	.-144    	; 0x2740 <_ZN3vfo17formatDisplayFreqEPcS0_>
    27d0:	60 96       	adiw	r28, 0x10	; 16
    27d2:	0f b6       	in	r0, 0x3f	; 63
    27d4:	f8 94       	cli
    27d6:	de bf       	out	0x3e, r29	; 62
    27d8:	0f be       	out	0x3f, r0	; 63
    27da:	cd bf       	out	0x3d, r28	; 61
    27dc:	df 91       	pop	r29
    27de:	cf 91       	pop	r28
    27e0:	1f 91       	pop	r17
    27e2:	0f 91       	pop	r16
    27e4:	ff 90       	pop	r15
    27e6:	ef 90       	pop	r14
    27e8:	08 95       	ret

000027ea <_ZN3vfo7getLineEv>:
    27ea:	fc 01       	movw	r30, r24
    27ec:	e7 55       	subi	r30, 0x57	; 87
    27ee:	ff 4f       	sbci	r31, 0xFF	; 255
    27f0:	80 81       	ld	r24, Z
    27f2:	91 81       	ldd	r25, Z+1	; 0x01
    27f4:	08 95       	ret

000027f6 <__mulsi3>:
    27f6:	db 01       	movw	r26, r22
    27f8:	8f 93       	push	r24
    27fa:	9f 93       	push	r25
    27fc:	2d d0       	rcall	.+90     	; 0x2858 <__muluhisi3>
    27fe:	bf 91       	pop	r27
    2800:	af 91       	pop	r26
    2802:	a2 9f       	mul	r26, r18
    2804:	80 0d       	add	r24, r0
    2806:	91 1d       	adc	r25, r1
    2808:	a3 9f       	mul	r26, r19
    280a:	90 0d       	add	r25, r0
    280c:	b2 9f       	mul	r27, r18
    280e:	90 0d       	add	r25, r0
    2810:	11 24       	eor	r1, r1
    2812:	08 95       	ret

00002814 <__udivmodsi4>:
    2814:	a1 e2       	ldi	r26, 0x21	; 33
    2816:	1a 2e       	mov	r1, r26
    2818:	aa 1b       	sub	r26, r26
    281a:	bb 1b       	sub	r27, r27
    281c:	fd 01       	movw	r30, r26
    281e:	0d c0       	rjmp	.+26     	; 0x283a <__udivmodsi4_ep>

00002820 <__udivmodsi4_loop>:
    2820:	aa 1f       	adc	r26, r26
    2822:	bb 1f       	adc	r27, r27
    2824:	ee 1f       	adc	r30, r30
    2826:	ff 1f       	adc	r31, r31
    2828:	a2 17       	cp	r26, r18
    282a:	b3 07       	cpc	r27, r19
    282c:	e4 07       	cpc	r30, r20
    282e:	f5 07       	cpc	r31, r21
    2830:	20 f0       	brcs	.+8      	; 0x283a <__udivmodsi4_ep>
    2832:	a2 1b       	sub	r26, r18
    2834:	b3 0b       	sbc	r27, r19
    2836:	e4 0b       	sbc	r30, r20
    2838:	f5 0b       	sbc	r31, r21

0000283a <__udivmodsi4_ep>:
    283a:	66 1f       	adc	r22, r22
    283c:	77 1f       	adc	r23, r23
    283e:	88 1f       	adc	r24, r24
    2840:	99 1f       	adc	r25, r25
    2842:	1a 94       	dec	r1
    2844:	69 f7       	brne	.-38     	; 0x2820 <__udivmodsi4_loop>
    2846:	60 95       	com	r22
    2848:	70 95       	com	r23
    284a:	80 95       	com	r24
    284c:	90 95       	com	r25
    284e:	9b 01       	movw	r18, r22
    2850:	ac 01       	movw	r20, r24
    2852:	bd 01       	movw	r22, r26
    2854:	cf 01       	movw	r24, r30
    2856:	08 95       	ret

00002858 <__muluhisi3>:
    2858:	0f d0       	rcall	.+30     	; 0x2878 <__umulhisi3>
    285a:	a5 9f       	mul	r26, r21
    285c:	90 0d       	add	r25, r0
    285e:	b4 9f       	mul	r27, r20
    2860:	90 0d       	add	r25, r0
    2862:	a4 9f       	mul	r26, r20
    2864:	80 0d       	add	r24, r0
    2866:	91 1d       	adc	r25, r1
    2868:	11 24       	eor	r1, r1
    286a:	08 95       	ret

0000286c <__mulshisi3>:
    286c:	b7 ff       	sbrs	r27, 7
    286e:	f4 cf       	rjmp	.-24     	; 0x2858 <__muluhisi3>

00002870 <__mulohisi3>:
    2870:	f3 df       	rcall	.-26     	; 0x2858 <__muluhisi3>
    2872:	82 1b       	sub	r24, r18
    2874:	93 0b       	sbc	r25, r19
    2876:	08 95       	ret

00002878 <__umulhisi3>:
    2878:	a2 9f       	mul	r26, r18
    287a:	b0 01       	movw	r22, r0
    287c:	b3 9f       	mul	r27, r19
    287e:	c0 01       	movw	r24, r0
    2880:	a3 9f       	mul	r26, r19
    2882:	70 0d       	add	r23, r0
    2884:	81 1d       	adc	r24, r1
    2886:	11 24       	eor	r1, r1
    2888:	91 1d       	adc	r25, r1
    288a:	b2 9f       	mul	r27, r18
    288c:	70 0d       	add	r23, r0
    288e:	81 1d       	adc	r24, r1
    2890:	11 24       	eor	r1, r1
    2892:	91 1d       	adc	r25, r1
    2894:	08 95       	ret

00002896 <__fixunssfsi>:
    2896:	70 d0       	rcall	.+224    	; 0x2978 <__fp_splitA>
    2898:	88 f0       	brcs	.+34     	; 0x28bc <__fixunssfsi+0x26>
    289a:	9f 57       	subi	r25, 0x7F	; 127
    289c:	90 f0       	brcs	.+36     	; 0x28c2 <__fixunssfsi+0x2c>
    289e:	b9 2f       	mov	r27, r25
    28a0:	99 27       	eor	r25, r25
    28a2:	b7 51       	subi	r27, 0x17	; 23
    28a4:	a0 f0       	brcs	.+40     	; 0x28ce <__fixunssfsi+0x38>
    28a6:	d1 f0       	breq	.+52     	; 0x28dc <__fixunssfsi+0x46>
    28a8:	66 0f       	add	r22, r22
    28aa:	77 1f       	adc	r23, r23
    28ac:	88 1f       	adc	r24, r24
    28ae:	99 1f       	adc	r25, r25
    28b0:	1a f0       	brmi	.+6      	; 0x28b8 <__fixunssfsi+0x22>
    28b2:	ba 95       	dec	r27
    28b4:	c9 f7       	brne	.-14     	; 0x28a8 <__fixunssfsi+0x12>
    28b6:	12 c0       	rjmp	.+36     	; 0x28dc <__fixunssfsi+0x46>
    28b8:	b1 30       	cpi	r27, 0x01	; 1
    28ba:	81 f0       	breq	.+32     	; 0x28dc <__fixunssfsi+0x46>
    28bc:	77 d0       	rcall	.+238    	; 0x29ac <__fp_zero>
    28be:	b1 e0       	ldi	r27, 0x01	; 1
    28c0:	08 95       	ret
    28c2:	74 c0       	rjmp	.+232    	; 0x29ac <__fp_zero>
    28c4:	67 2f       	mov	r22, r23
    28c6:	78 2f       	mov	r23, r24
    28c8:	88 27       	eor	r24, r24
    28ca:	b8 5f       	subi	r27, 0xF8	; 248
    28cc:	39 f0       	breq	.+14     	; 0x28dc <__fixunssfsi+0x46>
    28ce:	b9 3f       	cpi	r27, 0xF9	; 249
    28d0:	cc f3       	brlt	.-14     	; 0x28c4 <__fixunssfsi+0x2e>
    28d2:	86 95       	lsr	r24
    28d4:	77 95       	ror	r23
    28d6:	67 95       	ror	r22
    28d8:	b3 95       	inc	r27
    28da:	d9 f7       	brne	.-10     	; 0x28d2 <__fixunssfsi+0x3c>
    28dc:	3e f4       	brtc	.+14     	; 0x28ec <__fixunssfsi+0x56>
    28de:	90 95       	com	r25
    28e0:	80 95       	com	r24
    28e2:	70 95       	com	r23
    28e4:	61 95       	neg	r22
    28e6:	7f 4f       	sbci	r23, 0xFF	; 255
    28e8:	8f 4f       	sbci	r24, 0xFF	; 255
    28ea:	9f 4f       	sbci	r25, 0xFF	; 255
    28ec:	08 95       	ret

000028ee <__floatunsisf>:
    28ee:	e8 94       	clt
    28f0:	09 c0       	rjmp	.+18     	; 0x2904 <__floatsisf+0x12>

000028f2 <__floatsisf>:
    28f2:	97 fb       	bst	r25, 7
    28f4:	3e f4       	brtc	.+14     	; 0x2904 <__floatsisf+0x12>
    28f6:	90 95       	com	r25
    28f8:	80 95       	com	r24
    28fa:	70 95       	com	r23
    28fc:	61 95       	neg	r22
    28fe:	7f 4f       	sbci	r23, 0xFF	; 255
    2900:	8f 4f       	sbci	r24, 0xFF	; 255
    2902:	9f 4f       	sbci	r25, 0xFF	; 255
    2904:	99 23       	and	r25, r25
    2906:	a9 f0       	breq	.+42     	; 0x2932 <__floatsisf+0x40>
    2908:	f9 2f       	mov	r31, r25
    290a:	96 e9       	ldi	r25, 0x96	; 150
    290c:	bb 27       	eor	r27, r27
    290e:	93 95       	inc	r25
    2910:	f6 95       	lsr	r31
    2912:	87 95       	ror	r24
    2914:	77 95       	ror	r23
    2916:	67 95       	ror	r22
    2918:	b7 95       	ror	r27
    291a:	f1 11       	cpse	r31, r1
    291c:	f8 cf       	rjmp	.-16     	; 0x290e <__floatsisf+0x1c>
    291e:	fa f4       	brpl	.+62     	; 0x295e <__floatsisf+0x6c>
    2920:	bb 0f       	add	r27, r27
    2922:	11 f4       	brne	.+4      	; 0x2928 <__floatsisf+0x36>
    2924:	60 ff       	sbrs	r22, 0
    2926:	1b c0       	rjmp	.+54     	; 0x295e <__floatsisf+0x6c>
    2928:	6f 5f       	subi	r22, 0xFF	; 255
    292a:	7f 4f       	sbci	r23, 0xFF	; 255
    292c:	8f 4f       	sbci	r24, 0xFF	; 255
    292e:	9f 4f       	sbci	r25, 0xFF	; 255
    2930:	16 c0       	rjmp	.+44     	; 0x295e <__floatsisf+0x6c>
    2932:	88 23       	and	r24, r24
    2934:	11 f0       	breq	.+4      	; 0x293a <__floatsisf+0x48>
    2936:	96 e9       	ldi	r25, 0x96	; 150
    2938:	11 c0       	rjmp	.+34     	; 0x295c <__floatsisf+0x6a>
    293a:	77 23       	and	r23, r23
    293c:	21 f0       	breq	.+8      	; 0x2946 <__floatsisf+0x54>
    293e:	9e e8       	ldi	r25, 0x8E	; 142
    2940:	87 2f       	mov	r24, r23
    2942:	76 2f       	mov	r23, r22
    2944:	05 c0       	rjmp	.+10     	; 0x2950 <__floatsisf+0x5e>
    2946:	66 23       	and	r22, r22
    2948:	71 f0       	breq	.+28     	; 0x2966 <__floatsisf+0x74>
    294a:	96 e8       	ldi	r25, 0x86	; 134
    294c:	86 2f       	mov	r24, r22
    294e:	70 e0       	ldi	r23, 0x00	; 0
    2950:	60 e0       	ldi	r22, 0x00	; 0
    2952:	2a f0       	brmi	.+10     	; 0x295e <__floatsisf+0x6c>
    2954:	9a 95       	dec	r25
    2956:	66 0f       	add	r22, r22
    2958:	77 1f       	adc	r23, r23
    295a:	88 1f       	adc	r24, r24
    295c:	da f7       	brpl	.-10     	; 0x2954 <__floatsisf+0x62>
    295e:	88 0f       	add	r24, r24
    2960:	96 95       	lsr	r25
    2962:	87 95       	ror	r24
    2964:	97 f9       	bld	r25, 7
    2966:	08 95       	ret

00002968 <__fp_split3>:
    2968:	57 fd       	sbrc	r21, 7
    296a:	90 58       	subi	r25, 0x80	; 128
    296c:	44 0f       	add	r20, r20
    296e:	55 1f       	adc	r21, r21
    2970:	59 f0       	breq	.+22     	; 0x2988 <__fp_splitA+0x10>
    2972:	5f 3f       	cpi	r21, 0xFF	; 255
    2974:	71 f0       	breq	.+28     	; 0x2992 <__fp_splitA+0x1a>
    2976:	47 95       	ror	r20

00002978 <__fp_splitA>:
    2978:	88 0f       	add	r24, r24
    297a:	97 fb       	bst	r25, 7
    297c:	99 1f       	adc	r25, r25
    297e:	61 f0       	breq	.+24     	; 0x2998 <__fp_splitA+0x20>
    2980:	9f 3f       	cpi	r25, 0xFF	; 255
    2982:	79 f0       	breq	.+30     	; 0x29a2 <__fp_splitA+0x2a>
    2984:	87 95       	ror	r24
    2986:	08 95       	ret
    2988:	12 16       	cp	r1, r18
    298a:	13 06       	cpc	r1, r19
    298c:	14 06       	cpc	r1, r20
    298e:	55 1f       	adc	r21, r21
    2990:	f2 cf       	rjmp	.-28     	; 0x2976 <__fp_split3+0xe>
    2992:	46 95       	lsr	r20
    2994:	f1 df       	rcall	.-30     	; 0x2978 <__fp_splitA>
    2996:	08 c0       	rjmp	.+16     	; 0x29a8 <__fp_splitA+0x30>
    2998:	16 16       	cp	r1, r22
    299a:	17 06       	cpc	r1, r23
    299c:	18 06       	cpc	r1, r24
    299e:	99 1f       	adc	r25, r25
    29a0:	f1 cf       	rjmp	.-30     	; 0x2984 <__fp_splitA+0xc>
    29a2:	86 95       	lsr	r24
    29a4:	71 05       	cpc	r23, r1
    29a6:	61 05       	cpc	r22, r1
    29a8:	08 94       	sec
    29aa:	08 95       	ret

000029ac <__fp_zero>:
    29ac:	e8 94       	clt

000029ae <__fp_szero>:
    29ae:	bb 27       	eor	r27, r27
    29b0:	66 27       	eor	r22, r22
    29b2:	77 27       	eor	r23, r23
    29b4:	cb 01       	movw	r24, r22
    29b6:	97 f9       	bld	r25, 7
    29b8:	08 95       	ret

000029ba <__mulsf3>:
    29ba:	0b d0       	rcall	.+22     	; 0x29d2 <__mulsf3x>
    29bc:	78 c0       	rjmp	.+240    	; 0x2aae <__fp_round>
    29be:	69 d0       	rcall	.+210    	; 0x2a92 <__fp_pscA>
    29c0:	28 f0       	brcs	.+10     	; 0x29cc <__mulsf3+0x12>
    29c2:	6e d0       	rcall	.+220    	; 0x2aa0 <__fp_pscB>
    29c4:	18 f0       	brcs	.+6      	; 0x29cc <__mulsf3+0x12>
    29c6:	95 23       	and	r25, r21
    29c8:	09 f0       	breq	.+2      	; 0x29cc <__mulsf3+0x12>
    29ca:	5a c0       	rjmp	.+180    	; 0x2a80 <__fp_inf>
    29cc:	5f c0       	rjmp	.+190    	; 0x2a8c <__fp_nan>
    29ce:	11 24       	eor	r1, r1
    29d0:	ee cf       	rjmp	.-36     	; 0x29ae <__fp_szero>

000029d2 <__mulsf3x>:
    29d2:	ca df       	rcall	.-108    	; 0x2968 <__fp_split3>
    29d4:	a0 f3       	brcs	.-24     	; 0x29be <__mulsf3+0x4>

000029d6 <__mulsf3_pse>:
    29d6:	95 9f       	mul	r25, r21
    29d8:	d1 f3       	breq	.-12     	; 0x29ce <__mulsf3+0x14>
    29da:	95 0f       	add	r25, r21
    29dc:	50 e0       	ldi	r21, 0x00	; 0
    29de:	55 1f       	adc	r21, r21
    29e0:	62 9f       	mul	r22, r18
    29e2:	f0 01       	movw	r30, r0
    29e4:	72 9f       	mul	r23, r18
    29e6:	bb 27       	eor	r27, r27
    29e8:	f0 0d       	add	r31, r0
    29ea:	b1 1d       	adc	r27, r1
    29ec:	63 9f       	mul	r22, r19
    29ee:	aa 27       	eor	r26, r26
    29f0:	f0 0d       	add	r31, r0
    29f2:	b1 1d       	adc	r27, r1
    29f4:	aa 1f       	adc	r26, r26
    29f6:	64 9f       	mul	r22, r20
    29f8:	66 27       	eor	r22, r22
    29fa:	b0 0d       	add	r27, r0
    29fc:	a1 1d       	adc	r26, r1
    29fe:	66 1f       	adc	r22, r22
    2a00:	82 9f       	mul	r24, r18
    2a02:	22 27       	eor	r18, r18
    2a04:	b0 0d       	add	r27, r0
    2a06:	a1 1d       	adc	r26, r1
    2a08:	62 1f       	adc	r22, r18
    2a0a:	73 9f       	mul	r23, r19
    2a0c:	b0 0d       	add	r27, r0
    2a0e:	a1 1d       	adc	r26, r1
    2a10:	62 1f       	adc	r22, r18
    2a12:	83 9f       	mul	r24, r19
    2a14:	a0 0d       	add	r26, r0
    2a16:	61 1d       	adc	r22, r1
    2a18:	22 1f       	adc	r18, r18
    2a1a:	74 9f       	mul	r23, r20
    2a1c:	33 27       	eor	r19, r19
    2a1e:	a0 0d       	add	r26, r0
    2a20:	61 1d       	adc	r22, r1
    2a22:	23 1f       	adc	r18, r19
    2a24:	84 9f       	mul	r24, r20
    2a26:	60 0d       	add	r22, r0
    2a28:	21 1d       	adc	r18, r1
    2a2a:	82 2f       	mov	r24, r18
    2a2c:	76 2f       	mov	r23, r22
    2a2e:	6a 2f       	mov	r22, r26
    2a30:	11 24       	eor	r1, r1
    2a32:	9f 57       	subi	r25, 0x7F	; 127
    2a34:	50 40       	sbci	r21, 0x00	; 0
    2a36:	8a f0       	brmi	.+34     	; 0x2a5a <__mulsf3_pse+0x84>
    2a38:	e1 f0       	breq	.+56     	; 0x2a72 <__mulsf3_pse+0x9c>
    2a3a:	88 23       	and	r24, r24
    2a3c:	4a f0       	brmi	.+18     	; 0x2a50 <__mulsf3_pse+0x7a>
    2a3e:	ee 0f       	add	r30, r30
    2a40:	ff 1f       	adc	r31, r31
    2a42:	bb 1f       	adc	r27, r27
    2a44:	66 1f       	adc	r22, r22
    2a46:	77 1f       	adc	r23, r23
    2a48:	88 1f       	adc	r24, r24
    2a4a:	91 50       	subi	r25, 0x01	; 1
    2a4c:	50 40       	sbci	r21, 0x00	; 0
    2a4e:	a9 f7       	brne	.-22     	; 0x2a3a <__mulsf3_pse+0x64>
    2a50:	9e 3f       	cpi	r25, 0xFE	; 254
    2a52:	51 05       	cpc	r21, r1
    2a54:	70 f0       	brcs	.+28     	; 0x2a72 <__mulsf3_pse+0x9c>
    2a56:	14 c0       	rjmp	.+40     	; 0x2a80 <__fp_inf>
    2a58:	aa cf       	rjmp	.-172    	; 0x29ae <__fp_szero>
    2a5a:	5f 3f       	cpi	r21, 0xFF	; 255
    2a5c:	ec f3       	brlt	.-6      	; 0x2a58 <__mulsf3_pse+0x82>
    2a5e:	98 3e       	cpi	r25, 0xE8	; 232
    2a60:	dc f3       	brlt	.-10     	; 0x2a58 <__mulsf3_pse+0x82>
    2a62:	86 95       	lsr	r24
    2a64:	77 95       	ror	r23
    2a66:	67 95       	ror	r22
    2a68:	b7 95       	ror	r27
    2a6a:	f7 95       	ror	r31
    2a6c:	e7 95       	ror	r30
    2a6e:	9f 5f       	subi	r25, 0xFF	; 255
    2a70:	c1 f7       	brne	.-16     	; 0x2a62 <__mulsf3_pse+0x8c>
    2a72:	fe 2b       	or	r31, r30
    2a74:	88 0f       	add	r24, r24
    2a76:	91 1d       	adc	r25, r1
    2a78:	96 95       	lsr	r25
    2a7a:	87 95       	ror	r24
    2a7c:	97 f9       	bld	r25, 7
    2a7e:	08 95       	ret

00002a80 <__fp_inf>:
    2a80:	97 f9       	bld	r25, 7
    2a82:	9f 67       	ori	r25, 0x7F	; 127
    2a84:	80 e8       	ldi	r24, 0x80	; 128
    2a86:	70 e0       	ldi	r23, 0x00	; 0
    2a88:	60 e0       	ldi	r22, 0x00	; 0
    2a8a:	08 95       	ret

00002a8c <__fp_nan>:
    2a8c:	9f ef       	ldi	r25, 0xFF	; 255
    2a8e:	80 ec       	ldi	r24, 0xC0	; 192
    2a90:	08 95       	ret

00002a92 <__fp_pscA>:
    2a92:	00 24       	eor	r0, r0
    2a94:	0a 94       	dec	r0
    2a96:	16 16       	cp	r1, r22
    2a98:	17 06       	cpc	r1, r23
    2a9a:	18 06       	cpc	r1, r24
    2a9c:	09 06       	cpc	r0, r25
    2a9e:	08 95       	ret

00002aa0 <__fp_pscB>:
    2aa0:	00 24       	eor	r0, r0
    2aa2:	0a 94       	dec	r0
    2aa4:	12 16       	cp	r1, r18
    2aa6:	13 06       	cpc	r1, r19
    2aa8:	14 06       	cpc	r1, r20
    2aaa:	05 06       	cpc	r0, r21
    2aac:	08 95       	ret

00002aae <__fp_round>:
    2aae:	09 2e       	mov	r0, r25
    2ab0:	03 94       	inc	r0
    2ab2:	00 0c       	add	r0, r0
    2ab4:	11 f4       	brne	.+4      	; 0x2aba <__fp_round+0xc>
    2ab6:	88 23       	and	r24, r24
    2ab8:	52 f0       	brmi	.+20     	; 0x2ace <__fp_round+0x20>
    2aba:	bb 0f       	add	r27, r27
    2abc:	40 f4       	brcc	.+16     	; 0x2ace <__fp_round+0x20>
    2abe:	bf 2b       	or	r27, r31
    2ac0:	11 f4       	brne	.+4      	; 0x2ac6 <__fp_round+0x18>
    2ac2:	60 ff       	sbrs	r22, 0
    2ac4:	04 c0       	rjmp	.+8      	; 0x2ace <__fp_round+0x20>
    2ac6:	6f 5f       	subi	r22, 0xFF	; 255
    2ac8:	7f 4f       	sbci	r23, 0xFF	; 255
    2aca:	8f 4f       	sbci	r24, 0xFF	; 255
    2acc:	9f 4f       	sbci	r25, 0xFF	; 255
    2ace:	08 95       	ret

00002ad0 <malloc>:
    2ad0:	cf 93       	push	r28
    2ad2:	df 93       	push	r29
    2ad4:	82 30       	cpi	r24, 0x02	; 2
    2ad6:	91 05       	cpc	r25, r1
    2ad8:	10 f4       	brcc	.+4      	; 0x2ade <malloc+0xe>
    2ada:	82 e0       	ldi	r24, 0x02	; 2
    2adc:	90 e0       	ldi	r25, 0x00	; 0
    2ade:	e0 91 5a 03 	lds	r30, 0x035A	; 0x80035a <__flp>
    2ae2:	f0 91 5b 03 	lds	r31, 0x035B	; 0x80035b <__flp+0x1>
    2ae6:	20 e0       	ldi	r18, 0x00	; 0
    2ae8:	30 e0       	ldi	r19, 0x00	; 0
    2aea:	c0 e0       	ldi	r28, 0x00	; 0
    2aec:	d0 e0       	ldi	r29, 0x00	; 0
    2aee:	30 97       	sbiw	r30, 0x00	; 0
    2af0:	11 f1       	breq	.+68     	; 0x2b36 <malloc+0x66>
    2af2:	40 81       	ld	r20, Z
    2af4:	51 81       	ldd	r21, Z+1	; 0x01
    2af6:	48 17       	cp	r20, r24
    2af8:	59 07       	cpc	r21, r25
    2afa:	c0 f0       	brcs	.+48     	; 0x2b2c <malloc+0x5c>
    2afc:	48 17       	cp	r20, r24
    2afe:	59 07       	cpc	r21, r25
    2b00:	61 f4       	brne	.+24     	; 0x2b1a <malloc+0x4a>
    2b02:	82 81       	ldd	r24, Z+2	; 0x02
    2b04:	93 81       	ldd	r25, Z+3	; 0x03
    2b06:	20 97       	sbiw	r28, 0x00	; 0
    2b08:	19 f0       	breq	.+6      	; 0x2b10 <malloc+0x40>
    2b0a:	9b 83       	std	Y+3, r25	; 0x03
    2b0c:	8a 83       	std	Y+2, r24	; 0x02
    2b0e:	2b c0       	rjmp	.+86     	; 0x2b66 <malloc+0x96>
    2b10:	90 93 5b 03 	sts	0x035B, r25	; 0x80035b <__flp+0x1>
    2b14:	80 93 5a 03 	sts	0x035A, r24	; 0x80035a <__flp>
    2b18:	26 c0       	rjmp	.+76     	; 0x2b66 <malloc+0x96>
    2b1a:	21 15       	cp	r18, r1
    2b1c:	31 05       	cpc	r19, r1
    2b1e:	19 f0       	breq	.+6      	; 0x2b26 <malloc+0x56>
    2b20:	42 17       	cp	r20, r18
    2b22:	53 07       	cpc	r21, r19
    2b24:	18 f4       	brcc	.+6      	; 0x2b2c <malloc+0x5c>
    2b26:	9a 01       	movw	r18, r20
    2b28:	be 01       	movw	r22, r28
    2b2a:	df 01       	movw	r26, r30
    2b2c:	ef 01       	movw	r28, r30
    2b2e:	02 80       	ldd	r0, Z+2	; 0x02
    2b30:	f3 81       	ldd	r31, Z+3	; 0x03
    2b32:	e0 2d       	mov	r30, r0
    2b34:	dc cf       	rjmp	.-72     	; 0x2aee <malloc+0x1e>
    2b36:	21 15       	cp	r18, r1
    2b38:	31 05       	cpc	r19, r1
    2b3a:	09 f1       	breq	.+66     	; 0x2b7e <malloc+0xae>
    2b3c:	28 1b       	sub	r18, r24
    2b3e:	39 0b       	sbc	r19, r25
    2b40:	24 30       	cpi	r18, 0x04	; 4
    2b42:	31 05       	cpc	r19, r1
    2b44:	90 f4       	brcc	.+36     	; 0x2b6a <malloc+0x9a>
    2b46:	12 96       	adiw	r26, 0x02	; 2
    2b48:	8d 91       	ld	r24, X+
    2b4a:	9c 91       	ld	r25, X
    2b4c:	13 97       	sbiw	r26, 0x03	; 3
    2b4e:	61 15       	cp	r22, r1
    2b50:	71 05       	cpc	r23, r1
    2b52:	21 f0       	breq	.+8      	; 0x2b5c <malloc+0x8c>
    2b54:	fb 01       	movw	r30, r22
    2b56:	93 83       	std	Z+3, r25	; 0x03
    2b58:	82 83       	std	Z+2, r24	; 0x02
    2b5a:	04 c0       	rjmp	.+8      	; 0x2b64 <malloc+0x94>
    2b5c:	90 93 5b 03 	sts	0x035B, r25	; 0x80035b <__flp+0x1>
    2b60:	80 93 5a 03 	sts	0x035A, r24	; 0x80035a <__flp>
    2b64:	fd 01       	movw	r30, r26
    2b66:	32 96       	adiw	r30, 0x02	; 2
    2b68:	44 c0       	rjmp	.+136    	; 0x2bf2 <malloc+0x122>
    2b6a:	fd 01       	movw	r30, r26
    2b6c:	e2 0f       	add	r30, r18
    2b6e:	f3 1f       	adc	r31, r19
    2b70:	81 93       	st	Z+, r24
    2b72:	91 93       	st	Z+, r25
    2b74:	22 50       	subi	r18, 0x02	; 2
    2b76:	31 09       	sbc	r19, r1
    2b78:	2d 93       	st	X+, r18
    2b7a:	3c 93       	st	X, r19
    2b7c:	3a c0       	rjmp	.+116    	; 0x2bf2 <malloc+0x122>
    2b7e:	20 91 58 03 	lds	r18, 0x0358	; 0x800358 <__brkval>
    2b82:	30 91 59 03 	lds	r19, 0x0359	; 0x800359 <__brkval+0x1>
    2b86:	23 2b       	or	r18, r19
    2b88:	41 f4       	brne	.+16     	; 0x2b9a <malloc+0xca>
    2b8a:	20 91 02 01 	lds	r18, 0x0102	; 0x800102 <__malloc_heap_start>
    2b8e:	30 91 03 01 	lds	r19, 0x0103	; 0x800103 <__malloc_heap_start+0x1>
    2b92:	30 93 59 03 	sts	0x0359, r19	; 0x800359 <__brkval+0x1>
    2b96:	20 93 58 03 	sts	0x0358, r18	; 0x800358 <__brkval>
    2b9a:	20 91 00 01 	lds	r18, 0x0100	; 0x800100 <__data_start>
    2b9e:	30 91 01 01 	lds	r19, 0x0101	; 0x800101 <__data_start+0x1>
    2ba2:	21 15       	cp	r18, r1
    2ba4:	31 05       	cpc	r19, r1
    2ba6:	41 f4       	brne	.+16     	; 0x2bb8 <malloc+0xe8>
    2ba8:	2d b7       	in	r18, 0x3d	; 61
    2baa:	3e b7       	in	r19, 0x3e	; 62
    2bac:	40 91 04 01 	lds	r20, 0x0104	; 0x800104 <__malloc_margin>
    2bb0:	50 91 05 01 	lds	r21, 0x0105	; 0x800105 <__malloc_margin+0x1>
    2bb4:	24 1b       	sub	r18, r20
    2bb6:	35 0b       	sbc	r19, r21
    2bb8:	e0 91 58 03 	lds	r30, 0x0358	; 0x800358 <__brkval>
    2bbc:	f0 91 59 03 	lds	r31, 0x0359	; 0x800359 <__brkval+0x1>
    2bc0:	e2 17       	cp	r30, r18
    2bc2:	f3 07       	cpc	r31, r19
    2bc4:	a0 f4       	brcc	.+40     	; 0x2bee <malloc+0x11e>
    2bc6:	2e 1b       	sub	r18, r30
    2bc8:	3f 0b       	sbc	r19, r31
    2bca:	28 17       	cp	r18, r24
    2bcc:	39 07       	cpc	r19, r25
    2bce:	78 f0       	brcs	.+30     	; 0x2bee <malloc+0x11e>
    2bd0:	ac 01       	movw	r20, r24
    2bd2:	4e 5f       	subi	r20, 0xFE	; 254
    2bd4:	5f 4f       	sbci	r21, 0xFF	; 255
    2bd6:	24 17       	cp	r18, r20
    2bd8:	35 07       	cpc	r19, r21
    2bda:	48 f0       	brcs	.+18     	; 0x2bee <malloc+0x11e>
    2bdc:	4e 0f       	add	r20, r30
    2bde:	5f 1f       	adc	r21, r31
    2be0:	50 93 59 03 	sts	0x0359, r21	; 0x800359 <__brkval+0x1>
    2be4:	40 93 58 03 	sts	0x0358, r20	; 0x800358 <__brkval>
    2be8:	81 93       	st	Z+, r24
    2bea:	91 93       	st	Z+, r25
    2bec:	02 c0       	rjmp	.+4      	; 0x2bf2 <malloc+0x122>
    2bee:	e0 e0       	ldi	r30, 0x00	; 0
    2bf0:	f0 e0       	ldi	r31, 0x00	; 0
    2bf2:	cf 01       	movw	r24, r30
    2bf4:	df 91       	pop	r29
    2bf6:	cf 91       	pop	r28
    2bf8:	08 95       	ret

00002bfa <free>:
    2bfa:	0f 93       	push	r16
    2bfc:	1f 93       	push	r17
    2bfe:	cf 93       	push	r28
    2c00:	df 93       	push	r29
    2c02:	00 97       	sbiw	r24, 0x00	; 0
    2c04:	09 f4       	brne	.+2      	; 0x2c08 <free+0xe>
    2c06:	8c c0       	rjmp	.+280    	; 0x2d20 <free+0x126>
    2c08:	fc 01       	movw	r30, r24
    2c0a:	32 97       	sbiw	r30, 0x02	; 2
    2c0c:	13 82       	std	Z+3, r1	; 0x03
    2c0e:	12 82       	std	Z+2, r1	; 0x02
    2c10:	00 91 5a 03 	lds	r16, 0x035A	; 0x80035a <__flp>
    2c14:	10 91 5b 03 	lds	r17, 0x035B	; 0x80035b <__flp+0x1>
    2c18:	01 15       	cp	r16, r1
    2c1a:	11 05       	cpc	r17, r1
    2c1c:	81 f4       	brne	.+32     	; 0x2c3e <free+0x44>
    2c1e:	20 81       	ld	r18, Z
    2c20:	31 81       	ldd	r19, Z+1	; 0x01
    2c22:	82 0f       	add	r24, r18
    2c24:	93 1f       	adc	r25, r19
    2c26:	20 91 58 03 	lds	r18, 0x0358	; 0x800358 <__brkval>
    2c2a:	30 91 59 03 	lds	r19, 0x0359	; 0x800359 <__brkval+0x1>
    2c2e:	28 17       	cp	r18, r24
    2c30:	39 07       	cpc	r19, r25
    2c32:	79 f5       	brne	.+94     	; 0x2c92 <free+0x98>
    2c34:	f0 93 59 03 	sts	0x0359, r31	; 0x800359 <__brkval+0x1>
    2c38:	e0 93 58 03 	sts	0x0358, r30	; 0x800358 <__brkval>
    2c3c:	71 c0       	rjmp	.+226    	; 0x2d20 <free+0x126>
    2c3e:	d8 01       	movw	r26, r16
    2c40:	40 e0       	ldi	r20, 0x00	; 0
    2c42:	50 e0       	ldi	r21, 0x00	; 0
    2c44:	ae 17       	cp	r26, r30
    2c46:	bf 07       	cpc	r27, r31
    2c48:	50 f4       	brcc	.+20     	; 0x2c5e <free+0x64>
    2c4a:	12 96       	adiw	r26, 0x02	; 2
    2c4c:	2d 91       	ld	r18, X+
    2c4e:	3c 91       	ld	r19, X
    2c50:	13 97       	sbiw	r26, 0x03	; 3
    2c52:	ad 01       	movw	r20, r26
    2c54:	21 15       	cp	r18, r1
    2c56:	31 05       	cpc	r19, r1
    2c58:	09 f1       	breq	.+66     	; 0x2c9c <free+0xa2>
    2c5a:	d9 01       	movw	r26, r18
    2c5c:	f3 cf       	rjmp	.-26     	; 0x2c44 <free+0x4a>
    2c5e:	9d 01       	movw	r18, r26
    2c60:	da 01       	movw	r26, r20
    2c62:	33 83       	std	Z+3, r19	; 0x03
    2c64:	22 83       	std	Z+2, r18	; 0x02
    2c66:	60 81       	ld	r22, Z
    2c68:	71 81       	ldd	r23, Z+1	; 0x01
    2c6a:	86 0f       	add	r24, r22
    2c6c:	97 1f       	adc	r25, r23
    2c6e:	82 17       	cp	r24, r18
    2c70:	93 07       	cpc	r25, r19
    2c72:	69 f4       	brne	.+26     	; 0x2c8e <free+0x94>
    2c74:	ec 01       	movw	r28, r24
    2c76:	28 81       	ld	r18, Y
    2c78:	39 81       	ldd	r19, Y+1	; 0x01
    2c7a:	26 0f       	add	r18, r22
    2c7c:	37 1f       	adc	r19, r23
    2c7e:	2e 5f       	subi	r18, 0xFE	; 254
    2c80:	3f 4f       	sbci	r19, 0xFF	; 255
    2c82:	31 83       	std	Z+1, r19	; 0x01
    2c84:	20 83       	st	Z, r18
    2c86:	8a 81       	ldd	r24, Y+2	; 0x02
    2c88:	9b 81       	ldd	r25, Y+3	; 0x03
    2c8a:	93 83       	std	Z+3, r25	; 0x03
    2c8c:	82 83       	std	Z+2, r24	; 0x02
    2c8e:	45 2b       	or	r20, r21
    2c90:	29 f4       	brne	.+10     	; 0x2c9c <free+0xa2>
    2c92:	f0 93 5b 03 	sts	0x035B, r31	; 0x80035b <__flp+0x1>
    2c96:	e0 93 5a 03 	sts	0x035A, r30	; 0x80035a <__flp>
    2c9a:	42 c0       	rjmp	.+132    	; 0x2d20 <free+0x126>
    2c9c:	13 96       	adiw	r26, 0x03	; 3
    2c9e:	fc 93       	st	X, r31
    2ca0:	ee 93       	st	-X, r30
    2ca2:	12 97       	sbiw	r26, 0x02	; 2
    2ca4:	ed 01       	movw	r28, r26
    2ca6:	49 91       	ld	r20, Y+
    2ca8:	59 91       	ld	r21, Y+
    2caa:	9e 01       	movw	r18, r28
    2cac:	24 0f       	add	r18, r20
    2cae:	35 1f       	adc	r19, r21
    2cb0:	e2 17       	cp	r30, r18
    2cb2:	f3 07       	cpc	r31, r19
    2cb4:	71 f4       	brne	.+28     	; 0x2cd2 <free+0xd8>
    2cb6:	80 81       	ld	r24, Z
    2cb8:	91 81       	ldd	r25, Z+1	; 0x01
    2cba:	84 0f       	add	r24, r20
    2cbc:	95 1f       	adc	r25, r21
    2cbe:	02 96       	adiw	r24, 0x02	; 2
    2cc0:	11 96       	adiw	r26, 0x01	; 1
    2cc2:	9c 93       	st	X, r25
    2cc4:	8e 93       	st	-X, r24
    2cc6:	82 81       	ldd	r24, Z+2	; 0x02
    2cc8:	93 81       	ldd	r25, Z+3	; 0x03
    2cca:	13 96       	adiw	r26, 0x03	; 3
    2ccc:	9c 93       	st	X, r25
    2cce:	8e 93       	st	-X, r24
    2cd0:	12 97       	sbiw	r26, 0x02	; 2
    2cd2:	e0 e0       	ldi	r30, 0x00	; 0
    2cd4:	f0 e0       	ldi	r31, 0x00	; 0
    2cd6:	d8 01       	movw	r26, r16
    2cd8:	12 96       	adiw	r26, 0x02	; 2
    2cda:	8d 91       	ld	r24, X+
    2cdc:	9c 91       	ld	r25, X
    2cde:	13 97       	sbiw	r26, 0x03	; 3
    2ce0:	00 97       	sbiw	r24, 0x00	; 0
    2ce2:	19 f0       	breq	.+6      	; 0x2cea <free+0xf0>
    2ce4:	f8 01       	movw	r30, r16
    2ce6:	8c 01       	movw	r16, r24
    2ce8:	f6 cf       	rjmp	.-20     	; 0x2cd6 <free+0xdc>
    2cea:	8d 91       	ld	r24, X+
    2cec:	9c 91       	ld	r25, X
    2cee:	98 01       	movw	r18, r16
    2cf0:	2e 5f       	subi	r18, 0xFE	; 254
    2cf2:	3f 4f       	sbci	r19, 0xFF	; 255
    2cf4:	82 0f       	add	r24, r18
    2cf6:	93 1f       	adc	r25, r19
    2cf8:	20 91 58 03 	lds	r18, 0x0358	; 0x800358 <__brkval>
    2cfc:	30 91 59 03 	lds	r19, 0x0359	; 0x800359 <__brkval+0x1>
    2d00:	28 17       	cp	r18, r24
    2d02:	39 07       	cpc	r19, r25
    2d04:	69 f4       	brne	.+26     	; 0x2d20 <free+0x126>
    2d06:	30 97       	sbiw	r30, 0x00	; 0
    2d08:	29 f4       	brne	.+10     	; 0x2d14 <free+0x11a>
    2d0a:	10 92 5b 03 	sts	0x035B, r1	; 0x80035b <__flp+0x1>
    2d0e:	10 92 5a 03 	sts	0x035A, r1	; 0x80035a <__flp>
    2d12:	02 c0       	rjmp	.+4      	; 0x2d18 <free+0x11e>
    2d14:	13 82       	std	Z+3, r1	; 0x03
    2d16:	12 82       	std	Z+2, r1	; 0x02
    2d18:	10 93 59 03 	sts	0x0359, r17	; 0x800359 <__brkval+0x1>
    2d1c:	00 93 58 03 	sts	0x0358, r16	; 0x800358 <__brkval>
    2d20:	df 91       	pop	r29
    2d22:	cf 91       	pop	r28
    2d24:	1f 91       	pop	r17
    2d26:	0f 91       	pop	r16
    2d28:	08 95       	ret

00002d2a <strcpy>:
    2d2a:	fb 01       	movw	r30, r22
    2d2c:	dc 01       	movw	r26, r24
    2d2e:	01 90       	ld	r0, Z+
    2d30:	0d 92       	st	X+, r0
    2d32:	00 20       	and	r0, r0
    2d34:	e1 f7       	brne	.-8      	; 0x2d2e <strcpy+0x4>
    2d36:	08 95       	ret

00002d38 <fputs>:
    2d38:	ef 92       	push	r14
    2d3a:	ff 92       	push	r15
    2d3c:	0f 93       	push	r16
    2d3e:	1f 93       	push	r17
    2d40:	cf 93       	push	r28
    2d42:	df 93       	push	r29
    2d44:	db 01       	movw	r26, r22
    2d46:	13 96       	adiw	r26, 0x03	; 3
    2d48:	2c 91       	ld	r18, X
    2d4a:	21 ff       	sbrs	r18, 1
    2d4c:	18 c0       	rjmp	.+48     	; 0x2d7e <fputs+0x46>
    2d4e:	8b 01       	movw	r16, r22
    2d50:	7c 01       	movw	r14, r24
    2d52:	d0 e0       	ldi	r29, 0x00	; 0
    2d54:	c0 e0       	ldi	r28, 0x00	; 0
    2d56:	f7 01       	movw	r30, r14
    2d58:	81 91       	ld	r24, Z+
    2d5a:	7f 01       	movw	r14, r30
    2d5c:	88 23       	and	r24, r24
    2d5e:	61 f0       	breq	.+24     	; 0x2d78 <fputs+0x40>
    2d60:	d8 01       	movw	r26, r16
    2d62:	18 96       	adiw	r26, 0x08	; 8
    2d64:	ed 91       	ld	r30, X+
    2d66:	fc 91       	ld	r31, X
    2d68:	19 97       	sbiw	r26, 0x09	; 9
    2d6a:	b8 01       	movw	r22, r16
    2d6c:	09 95       	icall
    2d6e:	89 2b       	or	r24, r25
    2d70:	91 f3       	breq	.-28     	; 0x2d56 <fputs+0x1e>
    2d72:	df ef       	ldi	r29, 0xFF	; 255
    2d74:	cf ef       	ldi	r28, 0xFF	; 255
    2d76:	ef cf       	rjmp	.-34     	; 0x2d56 <fputs+0x1e>
    2d78:	8d 2f       	mov	r24, r29
    2d7a:	9c 2f       	mov	r25, r28
    2d7c:	02 c0       	rjmp	.+4      	; 0x2d82 <fputs+0x4a>
    2d7e:	8f ef       	ldi	r24, 0xFF	; 255
    2d80:	9f ef       	ldi	r25, 0xFF	; 255
    2d82:	cd b7       	in	r28, 0x3d	; 61
    2d84:	de b7       	in	r29, 0x3e	; 62
    2d86:	e6 e0       	ldi	r30, 0x06	; 6
    2d88:	e7 c2       	rjmp	.+1486   	; 0x3358 <__epilogue_restores__+0x18>

00002d8a <puts>:
    2d8a:	0f 93       	push	r16
    2d8c:	1f 93       	push	r17
    2d8e:	cf 93       	push	r28
    2d90:	df 93       	push	r29
    2d92:	e0 91 5e 03 	lds	r30, 0x035E	; 0x80035e <__iob+0x2>
    2d96:	f0 91 5f 03 	lds	r31, 0x035F	; 0x80035f <__iob+0x3>
    2d9a:	23 81       	ldd	r18, Z+3	; 0x03
    2d9c:	21 ff       	sbrs	r18, 1
    2d9e:	1b c0       	rjmp	.+54     	; 0x2dd6 <puts+0x4c>
    2da0:	8c 01       	movw	r16, r24
    2da2:	d0 e0       	ldi	r29, 0x00	; 0
    2da4:	c0 e0       	ldi	r28, 0x00	; 0
    2da6:	f8 01       	movw	r30, r16
    2da8:	81 91       	ld	r24, Z+
    2daa:	8f 01       	movw	r16, r30
    2dac:	60 91 5e 03 	lds	r22, 0x035E	; 0x80035e <__iob+0x2>
    2db0:	70 91 5f 03 	lds	r23, 0x035F	; 0x80035f <__iob+0x3>
    2db4:	db 01       	movw	r26, r22
    2db6:	18 96       	adiw	r26, 0x08	; 8
    2db8:	ed 91       	ld	r30, X+
    2dba:	fc 91       	ld	r31, X
    2dbc:	19 97       	sbiw	r26, 0x09	; 9
    2dbe:	88 23       	and	r24, r24
    2dc0:	31 f0       	breq	.+12     	; 0x2dce <puts+0x44>
    2dc2:	09 95       	icall
    2dc4:	89 2b       	or	r24, r25
    2dc6:	79 f3       	breq	.-34     	; 0x2da6 <puts+0x1c>
    2dc8:	df ef       	ldi	r29, 0xFF	; 255
    2dca:	cf ef       	ldi	r28, 0xFF	; 255
    2dcc:	ec cf       	rjmp	.-40     	; 0x2da6 <puts+0x1c>
    2dce:	8a e0       	ldi	r24, 0x0A	; 10
    2dd0:	09 95       	icall
    2dd2:	89 2b       	or	r24, r25
    2dd4:	19 f0       	breq	.+6      	; 0x2ddc <puts+0x52>
    2dd6:	8f ef       	ldi	r24, 0xFF	; 255
    2dd8:	9f ef       	ldi	r25, 0xFF	; 255
    2dda:	02 c0       	rjmp	.+4      	; 0x2de0 <puts+0x56>
    2ddc:	8d 2f       	mov	r24, r29
    2dde:	9c 2f       	mov	r25, r28
    2de0:	df 91       	pop	r29
    2de2:	cf 91       	pop	r28
    2de4:	1f 91       	pop	r17
    2de6:	0f 91       	pop	r16
    2de8:	08 95       	ret

00002dea <sprintf>:
    2dea:	ae e0       	ldi	r26, 0x0E	; 14
    2dec:	b0 e0       	ldi	r27, 0x00	; 0
    2dee:	ea ef       	ldi	r30, 0xFA	; 250
    2df0:	f6 e1       	ldi	r31, 0x16	; 22
    2df2:	98 c2       	rjmp	.+1328   	; 0x3324 <__prologue_saves__+0x1c>
    2df4:	0d 89       	ldd	r16, Y+21	; 0x15
    2df6:	1e 89       	ldd	r17, Y+22	; 0x16
    2df8:	86 e0       	ldi	r24, 0x06	; 6
    2dfa:	8c 83       	std	Y+4, r24	; 0x04
    2dfc:	1a 83       	std	Y+2, r17	; 0x02
    2dfe:	09 83       	std	Y+1, r16	; 0x01
    2e00:	8f ef       	ldi	r24, 0xFF	; 255
    2e02:	9f e7       	ldi	r25, 0x7F	; 127
    2e04:	9e 83       	std	Y+6, r25	; 0x06
    2e06:	8d 83       	std	Y+5, r24	; 0x05
    2e08:	ae 01       	movw	r20, r28
    2e0a:	47 5e       	subi	r20, 0xE7	; 231
    2e0c:	5f 4f       	sbci	r21, 0xFF	; 255
    2e0e:	6f 89       	ldd	r22, Y+23	; 0x17
    2e10:	78 8d       	ldd	r23, Y+24	; 0x18
    2e12:	ce 01       	movw	r24, r28
    2e14:	01 96       	adiw	r24, 0x01	; 1
    2e16:	09 d0       	rcall	.+18     	; 0x2e2a <vfprintf>
    2e18:	2f 81       	ldd	r18, Y+7	; 0x07
    2e1a:	38 85       	ldd	r19, Y+8	; 0x08
    2e1c:	f8 01       	movw	r30, r16
    2e1e:	e2 0f       	add	r30, r18
    2e20:	f3 1f       	adc	r31, r19
    2e22:	10 82       	st	Z, r1
    2e24:	2e 96       	adiw	r28, 0x0e	; 14
    2e26:	e4 e0       	ldi	r30, 0x04	; 4
    2e28:	99 c2       	rjmp	.+1330   	; 0x335c <__epilogue_restores__+0x1c>

00002e2a <vfprintf>:
    2e2a:	ac e0       	ldi	r26, 0x0C	; 12
    2e2c:	b0 e0       	ldi	r27, 0x00	; 0
    2e2e:	ea e1       	ldi	r30, 0x1A	; 26
    2e30:	f7 e1       	ldi	r31, 0x17	; 23
    2e32:	6a c2       	rjmp	.+1236   	; 0x3308 <__prologue_saves__>
    2e34:	7c 01       	movw	r14, r24
    2e36:	6b 01       	movw	r12, r22
    2e38:	8a 01       	movw	r16, r20
    2e3a:	fc 01       	movw	r30, r24
    2e3c:	17 82       	std	Z+7, r1	; 0x07
    2e3e:	16 82       	std	Z+6, r1	; 0x06
    2e40:	83 81       	ldd	r24, Z+3	; 0x03
    2e42:	81 ff       	sbrs	r24, 1
    2e44:	b0 c1       	rjmp	.+864    	; 0x31a6 <vfprintf+0x37c>
    2e46:	ce 01       	movw	r24, r28
    2e48:	01 96       	adiw	r24, 0x01	; 1
    2e4a:	4c 01       	movw	r8, r24
    2e4c:	f7 01       	movw	r30, r14
    2e4e:	93 81       	ldd	r25, Z+3	; 0x03
    2e50:	f6 01       	movw	r30, r12
    2e52:	93 fd       	sbrc	r25, 3
    2e54:	85 91       	lpm	r24, Z+
    2e56:	93 ff       	sbrs	r25, 3
    2e58:	81 91       	ld	r24, Z+
    2e5a:	6f 01       	movw	r12, r30
    2e5c:	88 23       	and	r24, r24
    2e5e:	09 f4       	brne	.+2      	; 0x2e62 <vfprintf+0x38>
    2e60:	9e c1       	rjmp	.+828    	; 0x319e <vfprintf+0x374>
    2e62:	85 32       	cpi	r24, 0x25	; 37
    2e64:	39 f4       	brne	.+14     	; 0x2e74 <vfprintf+0x4a>
    2e66:	93 fd       	sbrc	r25, 3
    2e68:	85 91       	lpm	r24, Z+
    2e6a:	93 ff       	sbrs	r25, 3
    2e6c:	81 91       	ld	r24, Z+
    2e6e:	6f 01       	movw	r12, r30
    2e70:	85 32       	cpi	r24, 0x25	; 37
    2e72:	21 f4       	brne	.+8      	; 0x2e7c <vfprintf+0x52>
    2e74:	b7 01       	movw	r22, r14
    2e76:	90 e0       	ldi	r25, 0x00	; 0
    2e78:	b1 d1       	rcall	.+866    	; 0x31dc <fputc>
    2e7a:	e8 cf       	rjmp	.-48     	; 0x2e4c <vfprintf+0x22>
    2e7c:	51 2c       	mov	r5, r1
    2e7e:	31 2c       	mov	r3, r1
    2e80:	20 e0       	ldi	r18, 0x00	; 0
    2e82:	20 32       	cpi	r18, 0x20	; 32
    2e84:	a0 f4       	brcc	.+40     	; 0x2eae <vfprintf+0x84>
    2e86:	8b 32       	cpi	r24, 0x2B	; 43
    2e88:	69 f0       	breq	.+26     	; 0x2ea4 <vfprintf+0x7a>
    2e8a:	30 f4       	brcc	.+12     	; 0x2e98 <vfprintf+0x6e>
    2e8c:	80 32       	cpi	r24, 0x20	; 32
    2e8e:	59 f0       	breq	.+22     	; 0x2ea6 <vfprintf+0x7c>
    2e90:	83 32       	cpi	r24, 0x23	; 35
    2e92:	69 f4       	brne	.+26     	; 0x2eae <vfprintf+0x84>
    2e94:	20 61       	ori	r18, 0x10	; 16
    2e96:	2c c0       	rjmp	.+88     	; 0x2ef0 <vfprintf+0xc6>
    2e98:	8d 32       	cpi	r24, 0x2D	; 45
    2e9a:	39 f0       	breq	.+14     	; 0x2eaa <vfprintf+0x80>
    2e9c:	80 33       	cpi	r24, 0x30	; 48
    2e9e:	39 f4       	brne	.+14     	; 0x2eae <vfprintf+0x84>
    2ea0:	21 60       	ori	r18, 0x01	; 1
    2ea2:	26 c0       	rjmp	.+76     	; 0x2ef0 <vfprintf+0xc6>
    2ea4:	22 60       	ori	r18, 0x02	; 2
    2ea6:	24 60       	ori	r18, 0x04	; 4
    2ea8:	23 c0       	rjmp	.+70     	; 0x2ef0 <vfprintf+0xc6>
    2eaa:	28 60       	ori	r18, 0x08	; 8
    2eac:	21 c0       	rjmp	.+66     	; 0x2ef0 <vfprintf+0xc6>
    2eae:	27 fd       	sbrc	r18, 7
    2eb0:	27 c0       	rjmp	.+78     	; 0x2f00 <vfprintf+0xd6>
    2eb2:	30 ed       	ldi	r19, 0xD0	; 208
    2eb4:	38 0f       	add	r19, r24
    2eb6:	3a 30       	cpi	r19, 0x0A	; 10
    2eb8:	78 f4       	brcc	.+30     	; 0x2ed8 <vfprintf+0xae>
    2eba:	26 ff       	sbrs	r18, 6
    2ebc:	06 c0       	rjmp	.+12     	; 0x2eca <vfprintf+0xa0>
    2ebe:	fa e0       	ldi	r31, 0x0A	; 10
    2ec0:	5f 9e       	mul	r5, r31
    2ec2:	30 0d       	add	r19, r0
    2ec4:	11 24       	eor	r1, r1
    2ec6:	53 2e       	mov	r5, r19
    2ec8:	13 c0       	rjmp	.+38     	; 0x2ef0 <vfprintf+0xc6>
    2eca:	8a e0       	ldi	r24, 0x0A	; 10
    2ecc:	38 9e       	mul	r3, r24
    2ece:	30 0d       	add	r19, r0
    2ed0:	11 24       	eor	r1, r1
    2ed2:	33 2e       	mov	r3, r19
    2ed4:	20 62       	ori	r18, 0x20	; 32
    2ed6:	0c c0       	rjmp	.+24     	; 0x2ef0 <vfprintf+0xc6>
    2ed8:	8e 32       	cpi	r24, 0x2E	; 46
    2eda:	21 f4       	brne	.+8      	; 0x2ee4 <vfprintf+0xba>
    2edc:	26 fd       	sbrc	r18, 6
    2ede:	5f c1       	rjmp	.+702    	; 0x319e <vfprintf+0x374>
    2ee0:	20 64       	ori	r18, 0x40	; 64
    2ee2:	06 c0       	rjmp	.+12     	; 0x2ef0 <vfprintf+0xc6>
    2ee4:	8c 36       	cpi	r24, 0x6C	; 108
    2ee6:	11 f4       	brne	.+4      	; 0x2eec <vfprintf+0xc2>
    2ee8:	20 68       	ori	r18, 0x80	; 128
    2eea:	02 c0       	rjmp	.+4      	; 0x2ef0 <vfprintf+0xc6>
    2eec:	88 36       	cpi	r24, 0x68	; 104
    2eee:	41 f4       	brne	.+16     	; 0x2f00 <vfprintf+0xd6>
    2ef0:	f6 01       	movw	r30, r12
    2ef2:	93 fd       	sbrc	r25, 3
    2ef4:	85 91       	lpm	r24, Z+
    2ef6:	93 ff       	sbrs	r25, 3
    2ef8:	81 91       	ld	r24, Z+
    2efa:	6f 01       	movw	r12, r30
    2efc:	81 11       	cpse	r24, r1
    2efe:	c1 cf       	rjmp	.-126    	; 0x2e82 <vfprintf+0x58>
    2f00:	98 2f       	mov	r25, r24
    2f02:	9f 7d       	andi	r25, 0xDF	; 223
    2f04:	95 54       	subi	r25, 0x45	; 69
    2f06:	93 30       	cpi	r25, 0x03	; 3
    2f08:	28 f4       	brcc	.+10     	; 0x2f14 <vfprintf+0xea>
    2f0a:	0c 5f       	subi	r16, 0xFC	; 252
    2f0c:	1f 4f       	sbci	r17, 0xFF	; 255
    2f0e:	ff e3       	ldi	r31, 0x3F	; 63
    2f10:	f9 83       	std	Y+1, r31	; 0x01
    2f12:	0d c0       	rjmp	.+26     	; 0x2f2e <vfprintf+0x104>
    2f14:	83 36       	cpi	r24, 0x63	; 99
    2f16:	31 f0       	breq	.+12     	; 0x2f24 <vfprintf+0xfa>
    2f18:	83 37       	cpi	r24, 0x73	; 115
    2f1a:	71 f0       	breq	.+28     	; 0x2f38 <vfprintf+0x10e>
    2f1c:	83 35       	cpi	r24, 0x53	; 83
    2f1e:	09 f0       	breq	.+2      	; 0x2f22 <vfprintf+0xf8>
    2f20:	57 c0       	rjmp	.+174    	; 0x2fd0 <vfprintf+0x1a6>
    2f22:	21 c0       	rjmp	.+66     	; 0x2f66 <vfprintf+0x13c>
    2f24:	f8 01       	movw	r30, r16
    2f26:	80 81       	ld	r24, Z
    2f28:	89 83       	std	Y+1, r24	; 0x01
    2f2a:	0e 5f       	subi	r16, 0xFE	; 254
    2f2c:	1f 4f       	sbci	r17, 0xFF	; 255
    2f2e:	44 24       	eor	r4, r4
    2f30:	43 94       	inc	r4
    2f32:	51 2c       	mov	r5, r1
    2f34:	54 01       	movw	r10, r8
    2f36:	14 c0       	rjmp	.+40     	; 0x2f60 <vfprintf+0x136>
    2f38:	38 01       	movw	r6, r16
    2f3a:	f2 e0       	ldi	r31, 0x02	; 2
    2f3c:	6f 0e       	add	r6, r31
    2f3e:	71 1c       	adc	r7, r1
    2f40:	f8 01       	movw	r30, r16
    2f42:	a0 80       	ld	r10, Z
    2f44:	b1 80       	ldd	r11, Z+1	; 0x01
    2f46:	26 ff       	sbrs	r18, 6
    2f48:	03 c0       	rjmp	.+6      	; 0x2f50 <vfprintf+0x126>
    2f4a:	65 2d       	mov	r22, r5
    2f4c:	70 e0       	ldi	r23, 0x00	; 0
    2f4e:	02 c0       	rjmp	.+4      	; 0x2f54 <vfprintf+0x12a>
    2f50:	6f ef       	ldi	r22, 0xFF	; 255
    2f52:	7f ef       	ldi	r23, 0xFF	; 255
    2f54:	c5 01       	movw	r24, r10
    2f56:	2c 87       	std	Y+12, r18	; 0x0c
    2f58:	36 d1       	rcall	.+620    	; 0x31c6 <strnlen>
    2f5a:	2c 01       	movw	r4, r24
    2f5c:	83 01       	movw	r16, r6
    2f5e:	2c 85       	ldd	r18, Y+12	; 0x0c
    2f60:	2f 77       	andi	r18, 0x7F	; 127
    2f62:	22 2e       	mov	r2, r18
    2f64:	16 c0       	rjmp	.+44     	; 0x2f92 <vfprintf+0x168>
    2f66:	38 01       	movw	r6, r16
    2f68:	f2 e0       	ldi	r31, 0x02	; 2
    2f6a:	6f 0e       	add	r6, r31
    2f6c:	71 1c       	adc	r7, r1
    2f6e:	f8 01       	movw	r30, r16
    2f70:	a0 80       	ld	r10, Z
    2f72:	b1 80       	ldd	r11, Z+1	; 0x01
    2f74:	26 ff       	sbrs	r18, 6
    2f76:	03 c0       	rjmp	.+6      	; 0x2f7e <vfprintf+0x154>
    2f78:	65 2d       	mov	r22, r5
    2f7a:	70 e0       	ldi	r23, 0x00	; 0
    2f7c:	02 c0       	rjmp	.+4      	; 0x2f82 <vfprintf+0x158>
    2f7e:	6f ef       	ldi	r22, 0xFF	; 255
    2f80:	7f ef       	ldi	r23, 0xFF	; 255
    2f82:	c5 01       	movw	r24, r10
    2f84:	2c 87       	std	Y+12, r18	; 0x0c
    2f86:	14 d1       	rcall	.+552    	; 0x31b0 <strnlen_P>
    2f88:	2c 01       	movw	r4, r24
    2f8a:	2c 85       	ldd	r18, Y+12	; 0x0c
    2f8c:	20 68       	ori	r18, 0x80	; 128
    2f8e:	22 2e       	mov	r2, r18
    2f90:	83 01       	movw	r16, r6
    2f92:	23 fc       	sbrc	r2, 3
    2f94:	19 c0       	rjmp	.+50     	; 0x2fc8 <vfprintf+0x19e>
    2f96:	83 2d       	mov	r24, r3
    2f98:	90 e0       	ldi	r25, 0x00	; 0
    2f9a:	48 16       	cp	r4, r24
    2f9c:	59 06       	cpc	r5, r25
    2f9e:	a0 f4       	brcc	.+40     	; 0x2fc8 <vfprintf+0x19e>
    2fa0:	b7 01       	movw	r22, r14
    2fa2:	80 e2       	ldi	r24, 0x20	; 32
    2fa4:	90 e0       	ldi	r25, 0x00	; 0
    2fa6:	1a d1       	rcall	.+564    	; 0x31dc <fputc>
    2fa8:	3a 94       	dec	r3
    2faa:	f5 cf       	rjmp	.-22     	; 0x2f96 <vfprintf+0x16c>
    2fac:	f5 01       	movw	r30, r10
    2fae:	27 fc       	sbrc	r2, 7
    2fb0:	85 91       	lpm	r24, Z+
    2fb2:	27 fe       	sbrs	r2, 7
    2fb4:	81 91       	ld	r24, Z+
    2fb6:	5f 01       	movw	r10, r30
    2fb8:	b7 01       	movw	r22, r14
    2fba:	90 e0       	ldi	r25, 0x00	; 0
    2fbc:	0f d1       	rcall	.+542    	; 0x31dc <fputc>
    2fbe:	31 10       	cpse	r3, r1
    2fc0:	3a 94       	dec	r3
    2fc2:	f1 e0       	ldi	r31, 0x01	; 1
    2fc4:	4f 1a       	sub	r4, r31
    2fc6:	51 08       	sbc	r5, r1
    2fc8:	41 14       	cp	r4, r1
    2fca:	51 04       	cpc	r5, r1
    2fcc:	79 f7       	brne	.-34     	; 0x2fac <vfprintf+0x182>
    2fce:	de c0       	rjmp	.+444    	; 0x318c <vfprintf+0x362>
    2fd0:	84 36       	cpi	r24, 0x64	; 100
    2fd2:	11 f0       	breq	.+4      	; 0x2fd8 <vfprintf+0x1ae>
    2fd4:	89 36       	cpi	r24, 0x69	; 105
    2fd6:	31 f5       	brne	.+76     	; 0x3024 <vfprintf+0x1fa>
    2fd8:	f8 01       	movw	r30, r16
    2fda:	27 ff       	sbrs	r18, 7
    2fdc:	07 c0       	rjmp	.+14     	; 0x2fec <vfprintf+0x1c2>
    2fde:	60 81       	ld	r22, Z
    2fe0:	71 81       	ldd	r23, Z+1	; 0x01
    2fe2:	82 81       	ldd	r24, Z+2	; 0x02
    2fe4:	93 81       	ldd	r25, Z+3	; 0x03
    2fe6:	0c 5f       	subi	r16, 0xFC	; 252
    2fe8:	1f 4f       	sbci	r17, 0xFF	; 255
    2fea:	08 c0       	rjmp	.+16     	; 0x2ffc <vfprintf+0x1d2>
    2fec:	60 81       	ld	r22, Z
    2fee:	71 81       	ldd	r23, Z+1	; 0x01
    2ff0:	07 2e       	mov	r0, r23
    2ff2:	00 0c       	add	r0, r0
    2ff4:	88 0b       	sbc	r24, r24
    2ff6:	99 0b       	sbc	r25, r25
    2ff8:	0e 5f       	subi	r16, 0xFE	; 254
    2ffa:	1f 4f       	sbci	r17, 0xFF	; 255
    2ffc:	2f 76       	andi	r18, 0x6F	; 111
    2ffe:	72 2e       	mov	r7, r18
    3000:	97 ff       	sbrs	r25, 7
    3002:	09 c0       	rjmp	.+18     	; 0x3016 <vfprintf+0x1ec>
    3004:	90 95       	com	r25
    3006:	80 95       	com	r24
    3008:	70 95       	com	r23
    300a:	61 95       	neg	r22
    300c:	7f 4f       	sbci	r23, 0xFF	; 255
    300e:	8f 4f       	sbci	r24, 0xFF	; 255
    3010:	9f 4f       	sbci	r25, 0xFF	; 255
    3012:	20 68       	ori	r18, 0x80	; 128
    3014:	72 2e       	mov	r7, r18
    3016:	2a e0       	ldi	r18, 0x0A	; 10
    3018:	30 e0       	ldi	r19, 0x00	; 0
    301a:	a4 01       	movw	r20, r8
    301c:	17 d1       	rcall	.+558    	; 0x324c <__ultoa_invert>
    301e:	a8 2e       	mov	r10, r24
    3020:	a8 18       	sub	r10, r8
    3022:	43 c0       	rjmp	.+134    	; 0x30aa <vfprintf+0x280>
    3024:	85 37       	cpi	r24, 0x75	; 117
    3026:	29 f4       	brne	.+10     	; 0x3032 <vfprintf+0x208>
    3028:	2f 7e       	andi	r18, 0xEF	; 239
    302a:	b2 2e       	mov	r11, r18
    302c:	2a e0       	ldi	r18, 0x0A	; 10
    302e:	30 e0       	ldi	r19, 0x00	; 0
    3030:	25 c0       	rjmp	.+74     	; 0x307c <vfprintf+0x252>
    3032:	f2 2f       	mov	r31, r18
    3034:	f9 7f       	andi	r31, 0xF9	; 249
    3036:	bf 2e       	mov	r11, r31
    3038:	8f 36       	cpi	r24, 0x6F	; 111
    303a:	c1 f0       	breq	.+48     	; 0x306c <vfprintf+0x242>
    303c:	18 f4       	brcc	.+6      	; 0x3044 <vfprintf+0x21a>
    303e:	88 35       	cpi	r24, 0x58	; 88
    3040:	79 f0       	breq	.+30     	; 0x3060 <vfprintf+0x236>
    3042:	ad c0       	rjmp	.+346    	; 0x319e <vfprintf+0x374>
    3044:	80 37       	cpi	r24, 0x70	; 112
    3046:	19 f0       	breq	.+6      	; 0x304e <vfprintf+0x224>
    3048:	88 37       	cpi	r24, 0x78	; 120
    304a:	21 f0       	breq	.+8      	; 0x3054 <vfprintf+0x22a>
    304c:	a8 c0       	rjmp	.+336    	; 0x319e <vfprintf+0x374>
    304e:	2f 2f       	mov	r18, r31
    3050:	20 61       	ori	r18, 0x10	; 16
    3052:	b2 2e       	mov	r11, r18
    3054:	b4 fe       	sbrs	r11, 4
    3056:	0d c0       	rjmp	.+26     	; 0x3072 <vfprintf+0x248>
    3058:	8b 2d       	mov	r24, r11
    305a:	84 60       	ori	r24, 0x04	; 4
    305c:	b8 2e       	mov	r11, r24
    305e:	09 c0       	rjmp	.+18     	; 0x3072 <vfprintf+0x248>
    3060:	24 ff       	sbrs	r18, 4
    3062:	0a c0       	rjmp	.+20     	; 0x3078 <vfprintf+0x24e>
    3064:	9f 2f       	mov	r25, r31
    3066:	96 60       	ori	r25, 0x06	; 6
    3068:	b9 2e       	mov	r11, r25
    306a:	06 c0       	rjmp	.+12     	; 0x3078 <vfprintf+0x24e>
    306c:	28 e0       	ldi	r18, 0x08	; 8
    306e:	30 e0       	ldi	r19, 0x00	; 0
    3070:	05 c0       	rjmp	.+10     	; 0x307c <vfprintf+0x252>
    3072:	20 e1       	ldi	r18, 0x10	; 16
    3074:	30 e0       	ldi	r19, 0x00	; 0
    3076:	02 c0       	rjmp	.+4      	; 0x307c <vfprintf+0x252>
    3078:	20 e1       	ldi	r18, 0x10	; 16
    307a:	32 e0       	ldi	r19, 0x02	; 2
    307c:	f8 01       	movw	r30, r16
    307e:	b7 fe       	sbrs	r11, 7
    3080:	07 c0       	rjmp	.+14     	; 0x3090 <vfprintf+0x266>
    3082:	60 81       	ld	r22, Z
    3084:	71 81       	ldd	r23, Z+1	; 0x01
    3086:	82 81       	ldd	r24, Z+2	; 0x02
    3088:	93 81       	ldd	r25, Z+3	; 0x03
    308a:	0c 5f       	subi	r16, 0xFC	; 252
    308c:	1f 4f       	sbci	r17, 0xFF	; 255
    308e:	06 c0       	rjmp	.+12     	; 0x309c <vfprintf+0x272>
    3090:	60 81       	ld	r22, Z
    3092:	71 81       	ldd	r23, Z+1	; 0x01
    3094:	80 e0       	ldi	r24, 0x00	; 0
    3096:	90 e0       	ldi	r25, 0x00	; 0
    3098:	0e 5f       	subi	r16, 0xFE	; 254
    309a:	1f 4f       	sbci	r17, 0xFF	; 255
    309c:	a4 01       	movw	r20, r8
    309e:	d6 d0       	rcall	.+428    	; 0x324c <__ultoa_invert>
    30a0:	a8 2e       	mov	r10, r24
    30a2:	a8 18       	sub	r10, r8
    30a4:	fb 2d       	mov	r31, r11
    30a6:	ff 77       	andi	r31, 0x7F	; 127
    30a8:	7f 2e       	mov	r7, r31
    30aa:	76 fe       	sbrs	r7, 6
    30ac:	0b c0       	rjmp	.+22     	; 0x30c4 <vfprintf+0x29a>
    30ae:	37 2d       	mov	r19, r7
    30b0:	3e 7f       	andi	r19, 0xFE	; 254
    30b2:	a5 14       	cp	r10, r5
    30b4:	50 f4       	brcc	.+20     	; 0x30ca <vfprintf+0x2a0>
    30b6:	74 fe       	sbrs	r7, 4
    30b8:	0a c0       	rjmp	.+20     	; 0x30ce <vfprintf+0x2a4>
    30ba:	72 fc       	sbrc	r7, 2
    30bc:	08 c0       	rjmp	.+16     	; 0x30ce <vfprintf+0x2a4>
    30be:	37 2d       	mov	r19, r7
    30c0:	3e 7e       	andi	r19, 0xEE	; 238
    30c2:	05 c0       	rjmp	.+10     	; 0x30ce <vfprintf+0x2a4>
    30c4:	ba 2c       	mov	r11, r10
    30c6:	37 2d       	mov	r19, r7
    30c8:	03 c0       	rjmp	.+6      	; 0x30d0 <vfprintf+0x2a6>
    30ca:	ba 2c       	mov	r11, r10
    30cc:	01 c0       	rjmp	.+2      	; 0x30d0 <vfprintf+0x2a6>
    30ce:	b5 2c       	mov	r11, r5
    30d0:	34 ff       	sbrs	r19, 4
    30d2:	0d c0       	rjmp	.+26     	; 0x30ee <vfprintf+0x2c4>
    30d4:	fe 01       	movw	r30, r28
    30d6:	ea 0d       	add	r30, r10
    30d8:	f1 1d       	adc	r31, r1
    30da:	80 81       	ld	r24, Z
    30dc:	80 33       	cpi	r24, 0x30	; 48
    30de:	11 f4       	brne	.+4      	; 0x30e4 <vfprintf+0x2ba>
    30e0:	39 7e       	andi	r19, 0xE9	; 233
    30e2:	09 c0       	rjmp	.+18     	; 0x30f6 <vfprintf+0x2cc>
    30e4:	32 ff       	sbrs	r19, 2
    30e6:	06 c0       	rjmp	.+12     	; 0x30f4 <vfprintf+0x2ca>
    30e8:	b3 94       	inc	r11
    30ea:	b3 94       	inc	r11
    30ec:	04 c0       	rjmp	.+8      	; 0x30f6 <vfprintf+0x2cc>
    30ee:	83 2f       	mov	r24, r19
    30f0:	86 78       	andi	r24, 0x86	; 134
    30f2:	09 f0       	breq	.+2      	; 0x30f6 <vfprintf+0x2cc>
    30f4:	b3 94       	inc	r11
    30f6:	33 fd       	sbrc	r19, 3
    30f8:	12 c0       	rjmp	.+36     	; 0x311e <vfprintf+0x2f4>
    30fa:	30 ff       	sbrs	r19, 0
    30fc:	06 c0       	rjmp	.+12     	; 0x310a <vfprintf+0x2e0>
    30fe:	5a 2c       	mov	r5, r10
    3100:	b3 14       	cp	r11, r3
    3102:	18 f4       	brcc	.+6      	; 0x310a <vfprintf+0x2e0>
    3104:	53 0c       	add	r5, r3
    3106:	5b 18       	sub	r5, r11
    3108:	b3 2c       	mov	r11, r3
    310a:	b3 14       	cp	r11, r3
    310c:	60 f4       	brcc	.+24     	; 0x3126 <vfprintf+0x2fc>
    310e:	b7 01       	movw	r22, r14
    3110:	80 e2       	ldi	r24, 0x20	; 32
    3112:	90 e0       	ldi	r25, 0x00	; 0
    3114:	3c 87       	std	Y+12, r19	; 0x0c
    3116:	62 d0       	rcall	.+196    	; 0x31dc <fputc>
    3118:	b3 94       	inc	r11
    311a:	3c 85       	ldd	r19, Y+12	; 0x0c
    311c:	f6 cf       	rjmp	.-20     	; 0x310a <vfprintf+0x2e0>
    311e:	b3 14       	cp	r11, r3
    3120:	10 f4       	brcc	.+4      	; 0x3126 <vfprintf+0x2fc>
    3122:	3b 18       	sub	r3, r11
    3124:	01 c0       	rjmp	.+2      	; 0x3128 <vfprintf+0x2fe>
    3126:	31 2c       	mov	r3, r1
    3128:	34 ff       	sbrs	r19, 4
    312a:	11 c0       	rjmp	.+34     	; 0x314e <vfprintf+0x324>
    312c:	b7 01       	movw	r22, r14
    312e:	80 e3       	ldi	r24, 0x30	; 48
    3130:	90 e0       	ldi	r25, 0x00	; 0
    3132:	3c 87       	std	Y+12, r19	; 0x0c
    3134:	53 d0       	rcall	.+166    	; 0x31dc <fputc>
    3136:	3c 85       	ldd	r19, Y+12	; 0x0c
    3138:	32 ff       	sbrs	r19, 2
    313a:	16 c0       	rjmp	.+44     	; 0x3168 <vfprintf+0x33e>
    313c:	31 fd       	sbrc	r19, 1
    313e:	03 c0       	rjmp	.+6      	; 0x3146 <vfprintf+0x31c>
    3140:	88 e7       	ldi	r24, 0x78	; 120
    3142:	90 e0       	ldi	r25, 0x00	; 0
    3144:	02 c0       	rjmp	.+4      	; 0x314a <vfprintf+0x320>
    3146:	88 e5       	ldi	r24, 0x58	; 88
    3148:	90 e0       	ldi	r25, 0x00	; 0
    314a:	b7 01       	movw	r22, r14
    314c:	0c c0       	rjmp	.+24     	; 0x3166 <vfprintf+0x33c>
    314e:	83 2f       	mov	r24, r19
    3150:	86 78       	andi	r24, 0x86	; 134
    3152:	51 f0       	breq	.+20     	; 0x3168 <vfprintf+0x33e>
    3154:	31 ff       	sbrs	r19, 1
    3156:	02 c0       	rjmp	.+4      	; 0x315c <vfprintf+0x332>
    3158:	8b e2       	ldi	r24, 0x2B	; 43
    315a:	01 c0       	rjmp	.+2      	; 0x315e <vfprintf+0x334>
    315c:	80 e2       	ldi	r24, 0x20	; 32
    315e:	37 fd       	sbrc	r19, 7
    3160:	8d e2       	ldi	r24, 0x2D	; 45
    3162:	b7 01       	movw	r22, r14
    3164:	90 e0       	ldi	r25, 0x00	; 0
    3166:	3a d0       	rcall	.+116    	; 0x31dc <fputc>
    3168:	a5 14       	cp	r10, r5
    316a:	30 f4       	brcc	.+12     	; 0x3178 <vfprintf+0x34e>
    316c:	b7 01       	movw	r22, r14
    316e:	80 e3       	ldi	r24, 0x30	; 48
    3170:	90 e0       	ldi	r25, 0x00	; 0
    3172:	34 d0       	rcall	.+104    	; 0x31dc <fputc>
    3174:	5a 94       	dec	r5
    3176:	f8 cf       	rjmp	.-16     	; 0x3168 <vfprintf+0x33e>
    3178:	aa 94       	dec	r10
    317a:	f4 01       	movw	r30, r8
    317c:	ea 0d       	add	r30, r10
    317e:	f1 1d       	adc	r31, r1
    3180:	80 81       	ld	r24, Z
    3182:	b7 01       	movw	r22, r14
    3184:	90 e0       	ldi	r25, 0x00	; 0
    3186:	2a d0       	rcall	.+84     	; 0x31dc <fputc>
    3188:	a1 10       	cpse	r10, r1
    318a:	f6 cf       	rjmp	.-20     	; 0x3178 <vfprintf+0x34e>
    318c:	33 20       	and	r3, r3
    318e:	09 f4       	brne	.+2      	; 0x3192 <vfprintf+0x368>
    3190:	5d ce       	rjmp	.-838    	; 0x2e4c <vfprintf+0x22>
    3192:	b7 01       	movw	r22, r14
    3194:	80 e2       	ldi	r24, 0x20	; 32
    3196:	90 e0       	ldi	r25, 0x00	; 0
    3198:	21 d0       	rcall	.+66     	; 0x31dc <fputc>
    319a:	3a 94       	dec	r3
    319c:	f7 cf       	rjmp	.-18     	; 0x318c <vfprintf+0x362>
    319e:	f7 01       	movw	r30, r14
    31a0:	86 81       	ldd	r24, Z+6	; 0x06
    31a2:	97 81       	ldd	r25, Z+7	; 0x07
    31a4:	02 c0       	rjmp	.+4      	; 0x31aa <vfprintf+0x380>
    31a6:	8f ef       	ldi	r24, 0xFF	; 255
    31a8:	9f ef       	ldi	r25, 0xFF	; 255
    31aa:	2c 96       	adiw	r28, 0x0c	; 12
    31ac:	e2 e1       	ldi	r30, 0x12	; 18
    31ae:	c8 c0       	rjmp	.+400    	; 0x3340 <__epilogue_restores__>

000031b0 <strnlen_P>:
    31b0:	fc 01       	movw	r30, r24
    31b2:	05 90       	lpm	r0, Z+
    31b4:	61 50       	subi	r22, 0x01	; 1
    31b6:	70 40       	sbci	r23, 0x00	; 0
    31b8:	01 10       	cpse	r0, r1
    31ba:	d8 f7       	brcc	.-10     	; 0x31b2 <strnlen_P+0x2>
    31bc:	80 95       	com	r24
    31be:	90 95       	com	r25
    31c0:	8e 0f       	add	r24, r30
    31c2:	9f 1f       	adc	r25, r31
    31c4:	08 95       	ret

000031c6 <strnlen>:
    31c6:	fc 01       	movw	r30, r24
    31c8:	61 50       	subi	r22, 0x01	; 1
    31ca:	70 40       	sbci	r23, 0x00	; 0
    31cc:	01 90       	ld	r0, Z+
    31ce:	01 10       	cpse	r0, r1
    31d0:	d8 f7       	brcc	.-10     	; 0x31c8 <strnlen+0x2>
    31d2:	80 95       	com	r24
    31d4:	90 95       	com	r25
    31d6:	8e 0f       	add	r24, r30
    31d8:	9f 1f       	adc	r25, r31
    31da:	08 95       	ret

000031dc <fputc>:
    31dc:	0f 93       	push	r16
    31de:	1f 93       	push	r17
    31e0:	cf 93       	push	r28
    31e2:	df 93       	push	r29
    31e4:	fb 01       	movw	r30, r22
    31e6:	23 81       	ldd	r18, Z+3	; 0x03
    31e8:	21 fd       	sbrc	r18, 1
    31ea:	03 c0       	rjmp	.+6      	; 0x31f2 <fputc+0x16>
    31ec:	8f ef       	ldi	r24, 0xFF	; 255
    31ee:	9f ef       	ldi	r25, 0xFF	; 255
    31f0:	28 c0       	rjmp	.+80     	; 0x3242 <fputc+0x66>
    31f2:	22 ff       	sbrs	r18, 2
    31f4:	16 c0       	rjmp	.+44     	; 0x3222 <fputc+0x46>
    31f6:	46 81       	ldd	r20, Z+6	; 0x06
    31f8:	57 81       	ldd	r21, Z+7	; 0x07
    31fa:	24 81       	ldd	r18, Z+4	; 0x04
    31fc:	35 81       	ldd	r19, Z+5	; 0x05
    31fe:	42 17       	cp	r20, r18
    3200:	53 07       	cpc	r21, r19
    3202:	44 f4       	brge	.+16     	; 0x3214 <fputc+0x38>
    3204:	a0 81       	ld	r26, Z
    3206:	b1 81       	ldd	r27, Z+1	; 0x01
    3208:	9d 01       	movw	r18, r26
    320a:	2f 5f       	subi	r18, 0xFF	; 255
    320c:	3f 4f       	sbci	r19, 0xFF	; 255
    320e:	31 83       	std	Z+1, r19	; 0x01
    3210:	20 83       	st	Z, r18
    3212:	8c 93       	st	X, r24
    3214:	26 81       	ldd	r18, Z+6	; 0x06
    3216:	37 81       	ldd	r19, Z+7	; 0x07
    3218:	2f 5f       	subi	r18, 0xFF	; 255
    321a:	3f 4f       	sbci	r19, 0xFF	; 255
    321c:	37 83       	std	Z+7, r19	; 0x07
    321e:	26 83       	std	Z+6, r18	; 0x06
    3220:	10 c0       	rjmp	.+32     	; 0x3242 <fputc+0x66>
    3222:	eb 01       	movw	r28, r22
    3224:	09 2f       	mov	r16, r25
    3226:	18 2f       	mov	r17, r24
    3228:	00 84       	ldd	r0, Z+8	; 0x08
    322a:	f1 85       	ldd	r31, Z+9	; 0x09
    322c:	e0 2d       	mov	r30, r0
    322e:	09 95       	icall
    3230:	89 2b       	or	r24, r25
    3232:	e1 f6       	brne	.-72     	; 0x31ec <fputc+0x10>
    3234:	8e 81       	ldd	r24, Y+6	; 0x06
    3236:	9f 81       	ldd	r25, Y+7	; 0x07
    3238:	01 96       	adiw	r24, 0x01	; 1
    323a:	9f 83       	std	Y+7, r25	; 0x07
    323c:	8e 83       	std	Y+6, r24	; 0x06
    323e:	81 2f       	mov	r24, r17
    3240:	90 2f       	mov	r25, r16
    3242:	df 91       	pop	r29
    3244:	cf 91       	pop	r28
    3246:	1f 91       	pop	r17
    3248:	0f 91       	pop	r16
    324a:	08 95       	ret

0000324c <__ultoa_invert>:
    324c:	fa 01       	movw	r30, r20
    324e:	aa 27       	eor	r26, r26
    3250:	28 30       	cpi	r18, 0x08	; 8
    3252:	51 f1       	breq	.+84     	; 0x32a8 <__ultoa_invert+0x5c>
    3254:	20 31       	cpi	r18, 0x10	; 16
    3256:	81 f1       	breq	.+96     	; 0x32b8 <__ultoa_invert+0x6c>
    3258:	e8 94       	clt
    325a:	6f 93       	push	r22
    325c:	6e 7f       	andi	r22, 0xFE	; 254
    325e:	6e 5f       	subi	r22, 0xFE	; 254
    3260:	7f 4f       	sbci	r23, 0xFF	; 255
    3262:	8f 4f       	sbci	r24, 0xFF	; 255
    3264:	9f 4f       	sbci	r25, 0xFF	; 255
    3266:	af 4f       	sbci	r26, 0xFF	; 255
    3268:	b1 e0       	ldi	r27, 0x01	; 1
    326a:	3e d0       	rcall	.+124    	; 0x32e8 <__ultoa_invert+0x9c>
    326c:	b4 e0       	ldi	r27, 0x04	; 4
    326e:	3c d0       	rcall	.+120    	; 0x32e8 <__ultoa_invert+0x9c>
    3270:	67 0f       	add	r22, r23
    3272:	78 1f       	adc	r23, r24
    3274:	89 1f       	adc	r24, r25
    3276:	9a 1f       	adc	r25, r26
    3278:	a1 1d       	adc	r26, r1
    327a:	68 0f       	add	r22, r24
    327c:	79 1f       	adc	r23, r25
    327e:	8a 1f       	adc	r24, r26
    3280:	91 1d       	adc	r25, r1
    3282:	a1 1d       	adc	r26, r1
    3284:	6a 0f       	add	r22, r26
    3286:	71 1d       	adc	r23, r1
    3288:	81 1d       	adc	r24, r1
    328a:	91 1d       	adc	r25, r1
    328c:	a1 1d       	adc	r26, r1
    328e:	20 d0       	rcall	.+64     	; 0x32d0 <__ultoa_invert+0x84>
    3290:	09 f4       	brne	.+2      	; 0x3294 <__ultoa_invert+0x48>
    3292:	68 94       	set
    3294:	3f 91       	pop	r19
    3296:	2a e0       	ldi	r18, 0x0A	; 10
    3298:	26 9f       	mul	r18, r22
    329a:	11 24       	eor	r1, r1
    329c:	30 19       	sub	r19, r0
    329e:	30 5d       	subi	r19, 0xD0	; 208
    32a0:	31 93       	st	Z+, r19
    32a2:	de f6       	brtc	.-74     	; 0x325a <__ultoa_invert+0xe>
    32a4:	cf 01       	movw	r24, r30
    32a6:	08 95       	ret
    32a8:	46 2f       	mov	r20, r22
    32aa:	47 70       	andi	r20, 0x07	; 7
    32ac:	40 5d       	subi	r20, 0xD0	; 208
    32ae:	41 93       	st	Z+, r20
    32b0:	b3 e0       	ldi	r27, 0x03	; 3
    32b2:	0f d0       	rcall	.+30     	; 0x32d2 <__ultoa_invert+0x86>
    32b4:	c9 f7       	brne	.-14     	; 0x32a8 <__ultoa_invert+0x5c>
    32b6:	f6 cf       	rjmp	.-20     	; 0x32a4 <__ultoa_invert+0x58>
    32b8:	46 2f       	mov	r20, r22
    32ba:	4f 70       	andi	r20, 0x0F	; 15
    32bc:	40 5d       	subi	r20, 0xD0	; 208
    32be:	4a 33       	cpi	r20, 0x3A	; 58
    32c0:	18 f0       	brcs	.+6      	; 0x32c8 <__ultoa_invert+0x7c>
    32c2:	49 5d       	subi	r20, 0xD9	; 217
    32c4:	31 fd       	sbrc	r19, 1
    32c6:	40 52       	subi	r20, 0x20	; 32
    32c8:	41 93       	st	Z+, r20
    32ca:	02 d0       	rcall	.+4      	; 0x32d0 <__ultoa_invert+0x84>
    32cc:	a9 f7       	brne	.-22     	; 0x32b8 <__ultoa_invert+0x6c>
    32ce:	ea cf       	rjmp	.-44     	; 0x32a4 <__ultoa_invert+0x58>
    32d0:	b4 e0       	ldi	r27, 0x04	; 4
    32d2:	a6 95       	lsr	r26
    32d4:	97 95       	ror	r25
    32d6:	87 95       	ror	r24
    32d8:	77 95       	ror	r23
    32da:	67 95       	ror	r22
    32dc:	ba 95       	dec	r27
    32de:	c9 f7       	brne	.-14     	; 0x32d2 <__ultoa_invert+0x86>
    32e0:	00 97       	sbiw	r24, 0x00	; 0
    32e2:	61 05       	cpc	r22, r1
    32e4:	71 05       	cpc	r23, r1
    32e6:	08 95       	ret
    32e8:	9b 01       	movw	r18, r22
    32ea:	ac 01       	movw	r20, r24
    32ec:	0a 2e       	mov	r0, r26
    32ee:	06 94       	lsr	r0
    32f0:	57 95       	ror	r21
    32f2:	47 95       	ror	r20
    32f4:	37 95       	ror	r19
    32f6:	27 95       	ror	r18
    32f8:	ba 95       	dec	r27
    32fa:	c9 f7       	brne	.-14     	; 0x32ee <__ultoa_invert+0xa2>
    32fc:	62 0f       	add	r22, r18
    32fe:	73 1f       	adc	r23, r19
    3300:	84 1f       	adc	r24, r20
    3302:	95 1f       	adc	r25, r21
    3304:	a0 1d       	adc	r26, r0
    3306:	08 95       	ret

00003308 <__prologue_saves__>:
    3308:	2f 92       	push	r2
    330a:	3f 92       	push	r3
    330c:	4f 92       	push	r4
    330e:	5f 92       	push	r5
    3310:	6f 92       	push	r6
    3312:	7f 92       	push	r7
    3314:	8f 92       	push	r8
    3316:	9f 92       	push	r9
    3318:	af 92       	push	r10
    331a:	bf 92       	push	r11
    331c:	cf 92       	push	r12
    331e:	df 92       	push	r13
    3320:	ef 92       	push	r14
    3322:	ff 92       	push	r15
    3324:	0f 93       	push	r16
    3326:	1f 93       	push	r17
    3328:	cf 93       	push	r28
    332a:	df 93       	push	r29
    332c:	cd b7       	in	r28, 0x3d	; 61
    332e:	de b7       	in	r29, 0x3e	; 62
    3330:	ca 1b       	sub	r28, r26
    3332:	db 0b       	sbc	r29, r27
    3334:	0f b6       	in	r0, 0x3f	; 63
    3336:	f8 94       	cli
    3338:	de bf       	out	0x3e, r29	; 62
    333a:	0f be       	out	0x3f, r0	; 63
    333c:	cd bf       	out	0x3d, r28	; 61
    333e:	09 94       	ijmp

00003340 <__epilogue_restores__>:
    3340:	2a 88       	ldd	r2, Y+18	; 0x12
    3342:	39 88       	ldd	r3, Y+17	; 0x11
    3344:	48 88       	ldd	r4, Y+16	; 0x10
    3346:	5f 84       	ldd	r5, Y+15	; 0x0f
    3348:	6e 84       	ldd	r6, Y+14	; 0x0e
    334a:	7d 84       	ldd	r7, Y+13	; 0x0d
    334c:	8c 84       	ldd	r8, Y+12	; 0x0c
    334e:	9b 84       	ldd	r9, Y+11	; 0x0b
    3350:	aa 84       	ldd	r10, Y+10	; 0x0a
    3352:	b9 84       	ldd	r11, Y+9	; 0x09
    3354:	c8 84       	ldd	r12, Y+8	; 0x08
    3356:	df 80       	ldd	r13, Y+7	; 0x07
    3358:	ee 80       	ldd	r14, Y+6	; 0x06
    335a:	fd 80       	ldd	r15, Y+5	; 0x05
    335c:	0c 81       	ldd	r16, Y+4	; 0x04
    335e:	1b 81       	ldd	r17, Y+3	; 0x03
    3360:	aa 81       	ldd	r26, Y+2	; 0x02
    3362:	b9 81       	ldd	r27, Y+1	; 0x01
    3364:	ce 0f       	add	r28, r30
    3366:	d1 1d       	adc	r29, r1
    3368:	0f b6       	in	r0, 0x3f	; 63
    336a:	f8 94       	cli
    336c:	de bf       	out	0x3e, r29	; 62
    336e:	0f be       	out	0x3f, r0	; 63
    3370:	cd bf       	out	0x3d, r28	; 61
    3372:	ed 01       	movw	r28, r26
    3374:	08 95       	ret

00003376 <_exit>:
    3376:	f8 94       	cli

00003378 <__stop_program>:
    3378:	ff cf       	rjmp	.-2      	; 0x3378 <__stop_program>
